(lp0
(ineural_net
Weight
p1
(dp2
S'value'
p3
F-0.0002362596645152145
sba(ineural_net
Weight
p4
(dp5
g3
F-0.0001872944757453105
sba(ineural_net
Weight
p6
(dp7
g3
F-0.006094349902282993
sba(ineural_net
Weight
p8
(dp9
g3
F0.001352209082754976
sba(ineural_net
Weight
p10
(dp11
g3
F0.0039018796714451794
sba(ineural_net
Weight
p12
(dp13
g3
F-0.015882277868890463
sba(ineural_net
Weight
p14
(dp15
g3
F-0.006525134621042888
sba(ineural_net
Weight
p16
(dp17
g3
F-0.028528039143680902
sba(ineural_net
Weight
p18
(dp19
g3
F-0.04961174730496773
sba(ineural_net
Weight
p20
(dp21
g3
F-0.05216623626317166
sba(ineural_net
Weight
p22
(dp23
g3
F-0.020837402110852592
sba(ineural_net
Weight
p24
(dp25
g3
F-0.007244453695009234
sba(ineural_net
Weight
p26
(dp27
g3
F-0.0028408195403261476
sba(ineural_net
Weight
p28
(dp29
g3
F0.000572068716977101
sba(ineural_net
Weight
p30
(dp31
g3
F0.007971941856577474
sba(ineural_net
Weight
p32
(dp33
g3
F0.006935238053226853
sba(ineural_net
Weight
p34
(dp35
g3
F0.007366761576007632
sba(ineural_net
Weight
p36
(dp37
g3
F-0.010913865144653055
sba(ineural_net
Weight
p38
(dp39
g3
F-0.0363292160453588
sba(ineural_net
Weight
p40
(dp41
g3
F-0.09654887377361848
sba(ineural_net
Weight
p42
(dp43
g3
F-0.17050104801526608
sba(ineural_net
Weight
p44
(dp45
g3
F-0.1545614610107903
sba(ineural_net
Weight
p46
(dp47
g3
F-0.15598101388374774
sba(ineural_net
Weight
p48
(dp49
g3
F-0.16309626481083936
sba(ineural_net
Weight
p50
(dp51
g3
F-0.12653932966676035
sba(ineural_net
Weight
p52
(dp53
g3
F-0.08228715842395777
sba(ineural_net
Weight
p54
(dp55
g3
F-0.05511162992440853
sba(ineural_net
Weight
p56
(dp57
g3
F-0.009020843302482632
sba(ineural_net
Weight
p58
(dp59
g3
F0.0009856274164955286
sba(ineural_net
Weight
p60
(dp61
g3
F-0.00718947967439722
sba(ineural_net
Weight
p62
(dp63
g3
F-0.01567178414079802
sba(ineural_net
Weight
p64
(dp65
g3
F-0.04623395599652987
sba(ineural_net
Weight
p66
(dp67
g3
F-0.16182306221428938
sba(ineural_net
Weight
p68
(dp69
g3
F-0.2561585682324124
sba(ineural_net
Weight
p70
(dp71
g3
F-0.2702131804314123
sba(ineural_net
Weight
p72
(dp73
g3
F-0.12002396878238286
sba(ineural_net
Weight
p74
(dp75
g3
F0.05613342425302594
sba(ineural_net
Weight
p76
(dp77
g3
F0.12769221804368416
sba(ineural_net
Weight
p78
(dp79
g3
F0.0037837065271400807
sba(ineural_net
Weight
p80
(dp81
g3
F-0.13607808156746462
sba(ineural_net
Weight
p82
(dp83
g3
F-0.12354845375104498
sba(ineural_net
Weight
p84
(dp85
g3
F-0.06473186376905633
sba(ineural_net
Weight
p86
(dp87
g3
F-0.01217987053446102
sba(ineural_net
Weight
p88
(dp89
g3
F0.00349323172869409
sba(ineural_net
Weight
p90
(dp91
g3
F-0.03508402320292834
sba(ineural_net
Weight
p92
(dp93
g3
F-0.13518035969476813
sba(ineural_net
Weight
p94
(dp95
g3
F-0.28337570132142137
sba(ineural_net
Weight
p96
(dp97
g3
F-0.32947895325560766
sba(ineural_net
Weight
p98
(dp99
g3
F-0.19303653238564358
sba(ineural_net
Weight
p100
(dp101
g3
F0.01210440755851024
sba(ineural_net
Weight
p102
(dp103
g3
F0.22123845349474192
sba(ineural_net
Weight
p104
(dp105
g3
F0.44599307083829065
sba(ineural_net
Weight
p106
(dp107
g3
F0.2811905595942899
sba(ineural_net
Weight
p108
(dp109
g3
F-0.05185479065843937
sba(ineural_net
Weight
p110
(dp111
g3
F-0.16362973626210242
sba(ineural_net
Weight
p112
(dp113
g3
F-0.11654108559757986
sba(ineural_net
Weight
p114
(dp115
g3
F-0.020119783229244848
sba(ineural_net
Weight
p116
(dp117
g3
F-0.008674188500493372
sba(ineural_net
Weight
p118
(dp119
g3
F-0.07102269256484388
sba(ineural_net
Weight
p120
(dp121
g3
F-0.20922374539114655
sba(ineural_net
Weight
p122
(dp123
g3
F-0.29873677262517384
sba(ineural_net
Weight
p124
(dp125
g3
F-0.2235081039801057
sba(ineural_net
Weight
p126
(dp127
g3
F-0.07547801459057948
sba(ineural_net
Weight
p128
(dp129
g3
F0.020483986778799316
sba(ineural_net
Weight
p130
(dp131
g3
F-0.053725371767449716
sba(ineural_net
Weight
p132
(dp133
g3
F0.14969701943750588
sba(ineural_net
Weight
p134
(dp135
g3
F0.39547541158442745
sba(ineural_net
Weight
p136
(dp137
g3
F0.25046216609705635
sba(ineural_net
Weight
p138
(dp139
g3
F0.02625227219851812
sba(ineural_net
Weight
p140
(dp141
g3
F-0.044963682655815705
sba(ineural_net
Weight
p142
(dp143
g3
F0.0011219955913505158
sba(ineural_net
Weight
p144
(dp145
g3
F-0.004251501405408664
sba(ineural_net
Weight
p146
(dp147
g3
F-0.07764303441813791
sba(ineural_net
Weight
p148
(dp149
g3
F-0.11830541067684656
sba(ineural_net
Weight
p150
(dp151
g3
F-0.18082605438575983
sba(ineural_net
Weight
p152
(dp153
g3
F-0.07986032911961995
sba(ineural_net
Weight
p154
(dp155
g3
F0.05155873688022977
sba(ineural_net
Weight
p156
(dp157
g3
F-0.21988554601169374
sba(ineural_net
Weight
p158
(dp159
g3
F-0.6826361336320673
sba(ineural_net
Weight
p160
(dp161
g3
F-0.4989965460509703
sba(ineural_net
Weight
p162
(dp163
g3
F0.20936384216188358
sba(ineural_net
Weight
p164
(dp165
g3
F0.53594549085795
sba(ineural_net
Weight
p166
(dp167
g3
F0.31340588472038483
sba(ineural_net
Weight
p168
(dp169
g3
F0.038078411279530065
sba(ineural_net
Weight
p170
(dp171
g3
F-0.010962421774397445
sba(ineural_net
Weight
p172
(dp173
g3
F-0.013609786799589069
sba(ineural_net
Weight
p174
(dp175
g3
F-0.04482277042236574
sba(ineural_net
Weight
p176
(dp177
g3
F0.028662344007771016
sba(ineural_net
Weight
p178
(dp179
g3
F0.11790283514869601
sba(ineural_net
Weight
p180
(dp181
g3
F0.24176798652361425
sba(ineural_net
Weight
p182
(dp183
g3
F0.0017652985693988228
sba(ineural_net
Weight
p184
(dp185
g3
F-0.763805174738309
sba(ineural_net
Weight
p186
(dp187
g3
F-1.2235572969383466
sba(ineural_net
Weight
p188
(dp189
g3
F-0.9528296791622317
sba(ineural_net
Weight
p190
(dp191
g3
F-0.09347468144425457
sba(ineural_net
Weight
p192
(dp193
g3
F0.4750431727434408
sba(ineural_net
Weight
p194
(dp195
g3
F0.3456878289635686
sba(ineural_net
Weight
p196
(dp197
g3
F0.075114381314763
sba(ineural_net
Weight
p198
(dp199
g3
F0.003779987172808774
sba(ineural_net
Weight
p200
(dp201
g3
F-0.009371846439191941
sba(ineural_net
Weight
p202
(dp203
g3
F-0.01737214755893064
sba(ineural_net
Weight
p204
(dp205
g3
F0.10653659275753874
sba(ineural_net
Weight
p206
(dp207
g3
F0.4084342892653108
sba(ineural_net
Weight
p208
(dp209
g3
F0.47324145364537124
sba(ineural_net
Weight
p210
(dp211
g3
F-0.30987977099568764
sba(ineural_net
Weight
p212
(dp213
g3
F-1.186014450273702
sba(ineural_net
Weight
p214
(dp215
g3
F-1.3567335852856723
sba(ineural_net
Weight
p216
(dp217
g3
F-0.8260578203288199
sba(ineural_net
Weight
p218
(dp219
g3
F-0.051578007304347154
sba(ineural_net
Weight
p220
(dp221
g3
F0.3188044866477516
sba(ineural_net
Weight
p222
(dp223
g3
F0.22636424989313572
sba(ineural_net
Weight
p224
(dp225
g3
F0.03467634169833865
sba(ineural_net
Weight
p226
(dp227
g3
F-0.011593177067962653
sba(ineural_net
Weight
p228
(dp229
g3
F0.006605594301877514
sba(ineural_net
Weight
p230
(dp231
g3
F-0.0021199554114802372
sba(ineural_net
Weight
p232
(dp233
g3
F0.10634291577187474
sba(ineural_net
Weight
p234
(dp235
g3
F0.5416094214130186
sba(ineural_net
Weight
p236
(dp237
g3
F0.5117348883502799
sba(ineural_net
Weight
p238
(dp239
g3
F-0.4375397056366081
sba(ineural_net
Weight
p240
(dp241
g3
F-1.1531154137163
sba(ineural_net
Weight
p242
(dp243
g3
F-0.9962547288681962
sba(ineural_net
Weight
p244
(dp245
g3
F-0.31058715245090224
sba(ineural_net
Weight
p246
(dp247
g3
F0.08908144673607335
sba(ineural_net
Weight
p248
(dp249
g3
F0.09014580650892644
sba(ineural_net
Weight
p250
(dp251
g3
F0.041126782005517705
sba(ineural_net
Weight
p252
(dp253
g3
F-0.03197568279974292
sba(ineural_net
Weight
p254
(dp255
g3
F-0.008156821129487579
sba(ineural_net
Weight
p256
(dp257
g3
F-0.008021078515967301
sba(ineural_net
Weight
p258
(dp259
g3
F-0.02210593623937999
sba(ineural_net
Weight
p260
(dp261
g3
F0.07917750735154576
sba(ineural_net
Weight
p262
(dp263
g3
F0.46229591422236127
sba(ineural_net
Weight
p264
(dp265
g3
F0.5753328463569399
sba(ineural_net
Weight
p266
(dp267
g3
F-0.06525491359454132
sba(ineural_net
Weight
p268
(dp269
g3
F-0.5356963381041314
sba(ineural_net
Weight
p270
(dp271
g3
F-0.3525301986612835
sba(ineural_net
Weight
p272
(dp273
g3
F-0.11258466027124168
sba(ineural_net
Weight
p274
(dp275
g3
F-0.13079146004407402
sba(ineural_net
Weight
p276
(dp277
g3
F-0.11824391146967254
sba(ineural_net
Weight
p278
(dp279
g3
F-0.06648456666672267
sba(ineural_net
Weight
p280
(dp281
g3
F-0.03003251836038685
sba(ineural_net
Weight
p282
(dp283
g3
F-0.0017823192973987984
sba(ineural_net
Weight
p284
(dp285
g3
F-0.010324100211799336
sba(ineural_net
Weight
p286
(dp287
g3
F-0.02754763981954273
sba(ineural_net
Weight
p288
(dp289
g3
F0.03397864844362083
sba(ineural_net
Weight
p290
(dp291
g3
F0.2717402339471564
sba(ineural_net
Weight
p292
(dp293
g3
F0.497663025331132
sba(ineural_net
Weight
p294
(dp295
g3
F0.35138458408165424
sba(ineural_net
Weight
p296
(dp297
g3
F0.0776436601193029
sba(ineural_net
Weight
p298
(dp299
g3
F-0.04372474031014382
sba(ineural_net
Weight
p300
(dp301
g3
F-0.21295768528101167
sba(ineural_net
Weight
p302
(dp303
g3
F-0.27486311884204206
sba(ineural_net
Weight
p304
(dp305
g3
F-0.17221615936961807
sba(ineural_net
Weight
p306
(dp307
g3
F-0.07608127648139469
sba(ineural_net
Weight
p308
(dp309
g3
F-0.012303394230324415
sba(ineural_net
Weight
p310
(dp311
g3
F-0.00443500088222806
sba(ineural_net
Weight
p312
(dp313
g3
F-0.00621020259743412
sba(ineural_net
Weight
p314
(dp315
g3
F-0.012168872291839552
sba(ineural_net
Weight
p316
(dp317
g3
F-0.0012997775786954
sba(ineural_net
Weight
p318
(dp319
g3
F0.042043764299860384
sba(ineural_net
Weight
p320
(dp321
g3
F0.10472285371047417
sba(ineural_net
Weight
p322
(dp323
g3
F0.09112553438780163
sba(ineural_net
Weight
p324
(dp325
g3
F-0.023405930685898788
sba(ineural_net
Weight
p326
(dp327
g3
F-0.16492831555906884
sba(ineural_net
Weight
p328
(dp329
g3
F-0.22296871177381217
sba(ineural_net
Weight
p330
(dp331
g3
F-0.18076256725475082
sba(ineural_net
Weight
p332
(dp333
g3
F-0.09630597732226577
sba(ineural_net
Weight
p334
(dp335
g3
F-0.03328703585950924
sba(ineural_net
Weight
p336
(dp337
g3
F-0.004109510334116784
sba(ineural_net
Weight
p338
(dp339
g3
F0.003685672178651948
sba(ineural_net
Weight
p340
(dp341
g3
F-0.009180738340278917
sba(ineural_net
Weight
p342
(dp343
g3
F-0.00934638147876654
sba(ineural_net
Weight
p344
(dp345
g3
F-0.007920325362126956
sba(ineural_net
Weight
p346
(dp347
g3
F-0.06859055018552612
sba(ineural_net
Weight
p348
(dp349
g3
F-0.17142917796840385
sba(ineural_net
Weight
p350
(dp351
g3
F-0.22229742809256753
sba(ineural_net
Weight
p352
(dp353
g3
F-0.23272987229983463
sba(ineural_net
Weight
p354
(dp355
g3
F-0.2210702528359536
sba(ineural_net
Weight
p356
(dp357
g3
F-0.17418153649636944
sba(ineural_net
Weight
p358
(dp359
g3
F-0.09703845876300342
sba(ineural_net
Weight
p360
(dp361
g3
F-0.036989626458101416
sba(ineural_net
Weight
p362
(dp363
g3
F-0.008149883216505067
sba(ineural_net
Weight
p364
(dp365
g3
F0.00791412455058147
sba(ineural_net
Weight
p366
(dp367
g3
F0.005496475511003008
sba(ineural_net
Weight
p368
(dp369
g3
F-0.0026237873262244717
sba(ineural_net
Weight
p370
(dp371
g3
F-0.004144962711457806
sba(ineural_net
Weight
p372
(dp373
g3
F0.0023810158408938483
sba(ineural_net
Weight
p374
(dp375
g3
F-0.03525028346805249
sba(ineural_net
Weight
p376
(dp377
g3
F-0.0634947534949034
sba(ineural_net
Weight
p378
(dp379
g3
F-0.07585551740330679
sba(ineural_net
Weight
p380
(dp381
g3
F-0.05222613340443457
sba(ineural_net
Weight
p382
(dp383
g3
F-0.05979844351286062
sba(ineural_net
Weight
p384
(dp385
g3
F-0.05491397071837478
sba(ineural_net
Weight
p386
(dp387
g3
F-0.04085112949065676
sba(ineural_net
Weight
p388
(dp389
g3
F-0.003309733886328812
sba(ineural_net
Weight
p390
(dp391
g3
F-0.008130851967322526
sba(ineural_net
Weight
p392
(dp393
g3
F-0.0077277563629961745
sba(ineural_net
Weight
p394
(dp395
g3
F-0.007087297043567175
sba(ineural_net
Weight
p396
(dp397
g3
F0.006255036047993547
sba(ineural_net
Weight
p398
(dp399
g3
F-0.0024763883383918488
sba(ineural_net
Weight
p400
(dp401
g3
F-0.006262490933581088
sba(ineural_net
Weight
p402
(dp403
g3
F0.005133198003219789
sba(ineural_net
Weight
p404
(dp405
g3
F-0.0016501870293024823
sba(ineural_net
Weight
p406
(dp407
g3
F-0.0032378626273269354
sba(ineural_net
Weight
p408
(dp409
g3
F-0.0011139874447711137
sba(ineural_net
Weight
p410
(dp411
g3
F-0.01336795533176337
sba(ineural_net
Weight
p412
(dp413
g3
F-0.007580101724072785
sba(ineural_net
Weight
p414
(dp415
g3
F-0.008069208708487964
sba(ineural_net
Weight
p416
(dp417
g3
F-0.019644786227754816
sba(ineural_net
Weight
p418
(dp419
g3
F-0.01496488992602969
sba(ineural_net
Weight
p420
(dp421
g3
F-0.009438961887285524
sba(ineural_net
Weight
p422
(dp423
g3
F0.0006924320376516524
sba(ineural_net
Weight
p424
(dp425
g3
F-0.008194654903199738
sba(ineural_net
Weight
p426
(dp427
g3
F-0.0014896144798346189
sba(ineural_net
Weight
p428
(dp429
g3
F0.00037426202246236106
sba(ineural_net
Weight
p430
(dp431
g3
F-0.014783338790011046
sba(ineural_net
Weight
p432
(dp433
g3
F-0.034630149280044584
sba(ineural_net
Weight
p434
(dp435
g3
F-0.10204335088713462
sba(ineural_net
Weight
p436
(dp437
g3
F-0.09468421523334573
sba(ineural_net
Weight
p438
(dp439
g3
F-0.004663453845203013
sba(ineural_net
Weight
p440
(dp441
g3
F-0.003335241891840958
sba(ineural_net
Weight
p442
(dp443
g3
F-0.064402650501417
sba(ineural_net
Weight
p444
(dp445
g3
F0.025172771453567135
sba(ineural_net
Weight
p446
(dp447
g3
F0.0578551267444322
sba(ineural_net
Weight
p448
(dp449
g3
F0.027960420194536345
sba(ineural_net
Weight
p450
(dp451
g3
F-0.002559026930826318
sba(ineural_net
Weight
p452
(dp453
g3
F-0.003572269417708558
sba(ineural_net
Weight
p454
(dp455
g3
F0.004050978216803498
sba(ineural_net
Weight
p456
(dp457
g3
F-0.003679120654684397
sba(ineural_net
Weight
p458
(dp459
g3
F-0.04162286640699267
sba(ineural_net
Weight
p460
(dp461
g3
F-0.1547431013576043
sba(ineural_net
Weight
p462
(dp463
g3
F-0.34543205963046153
sba(ineural_net
Weight
p464
(dp465
g3
F-0.3059387965069939
sba(ineural_net
Weight
p466
(dp467
g3
F-0.04992767491643089
sba(ineural_net
Weight
p468
(dp469
g3
F-0.10789672384088732
sba(ineural_net
Weight
p470
(dp471
g3
F-0.14676799220752215
sba(ineural_net
Weight
p472
(dp473
g3
F0.1253991260012511
sba(ineural_net
Weight
p474
(dp475
g3
F0.1636874793930184
sba(ineural_net
Weight
p476
(dp477
g3
F-0.01601490369096982
sba(ineural_net
Weight
p478
(dp479
g3
F-0.030908529598775804
sba(ineural_net
Weight
p480
(dp481
g3
F-0.0023108586540156063
sba(ineural_net
Weight
p482
(dp483
g3
F0.0054864278839439305
sba(ineural_net
Weight
p484
(dp485
g3
F-0.005601067530072774
sba(ineural_net
Weight
p486
(dp487
g3
F-0.10015088183384581
sba(ineural_net
Weight
p488
(dp489
g3
F-0.292817370913777
sba(ineural_net
Weight
p490
(dp491
g3
F-0.5680325756009786
sba(ineural_net
Weight
p492
(dp493
g3
F-0.5455578141795374
sba(ineural_net
Weight
p494
(dp495
g3
F-0.21225389627400393
sba(ineural_net
Weight
p496
(dp497
g3
F-0.18814535749440517
sba(ineural_net
Weight
p498
(dp499
g3
F-0.2579453815275123
sba(ineural_net
Weight
p500
(dp501
g3
F-0.11723187082160695
sba(ineural_net
Weight
p502
(dp503
g3
F-0.13225143473637613
sba(ineural_net
Weight
p504
(dp505
g3
F-0.20651344402372096
sba(ineural_net
Weight
p506
(dp507
g3
F-0.08272666563931895
sba(ineural_net
Weight
p508
(dp509
g3
F-0.005445763644474435
sba(ineural_net
Weight
p510
(dp511
g3
F0.007945812151775958
sba(ineural_net
Weight
p512
(dp513
g3
F-0.014535636882688366
sba(ineural_net
Weight
p514
(dp515
g3
F-0.11087534519582957
sba(ineural_net
Weight
p516
(dp517
g3
F-0.3123023092596186
sba(ineural_net
Weight
p518
(dp519
g3
F-0.606544919319645
sba(ineural_net
Weight
p520
(dp521
g3
F-0.7175094865721852
sba(ineural_net
Weight
p522
(dp523
g3
F-0.06674328276069601
sba(ineural_net
Weight
p524
(dp525
g3
F0.35810214146957303
sba(ineural_net
Weight
p526
(dp527
g3
F-0.1515762292866418
sba(ineural_net
Weight
p528
(dp529
g3
F-0.5145287156828715
sba(ineural_net
Weight
p530
(dp531
g3
F-0.43747437237388037
sba(ineural_net
Weight
p532
(dp533
g3
F-0.26611588031883576
sba(ineural_net
Weight
p534
(dp535
g3
F-0.08921428224930077
sba(ineural_net
Weight
p536
(dp537
g3
F-0.009238633003802326
sba(ineural_net
Weight
p538
(dp539
g3
F-0.008987486162401555
sba(ineural_net
Weight
p540
(dp541
g3
F-0.011318081713264132
sba(ineural_net
Weight
p542
(dp543
g3
F-0.06542119547391137
sba(ineural_net
Weight
p544
(dp545
g3
F-0.24400971128496718
sba(ineural_net
Weight
p546
(dp547
g3
F-0.6138693900070338
sba(ineural_net
Weight
p548
(dp549
g3
F-0.8980163504983766
sba(ineural_net
Weight
p550
(dp551
g3
F0.40771828969221047
sba(ineural_net
Weight
p552
(dp553
g3
F1.05136890631196
sba(ineural_net
Weight
p554
(dp555
g3
F-0.2117761315363847
sba(ineural_net
Weight
p556
(dp557
g3
F-0.5839815319909788
sba(ineural_net
Weight
p558
(dp559
g3
F-0.3116683540543961
sba(ineural_net
Weight
p560
(dp561
g3
F-0.13220026645405097
sba(ineural_net
Weight
p562
(dp563
g3
F-0.028730879065830738
sba(ineural_net
Weight
p564
(dp565
g3
F0.00295199662862524
sba(ineural_net
Weight
p566
(dp567
g3
F0.0001315399743160068
sba(ineural_net
Weight
p568
(dp569
g3
F-0.003788212936736316
sba(ineural_net
Weight
p570
(dp571
g3
F-0.039069259141704116
sba(ineural_net
Weight
p572
(dp573
g3
F-0.21884527846263913
sba(ineural_net
Weight
p574
(dp575
g3
F-0.72767151013187
sba(ineural_net
Weight
p576
(dp577
g3
F-1.0172273263194664
sba(ineural_net
Weight
p578
(dp579
g3
F0.6439284569473722
sba(ineural_net
Weight
p580
(dp581
g3
F0.889532768919232
sba(ineural_net
Weight
p582
(dp583
g3
F-0.6731114064987496
sba(ineural_net
Weight
p584
(dp585
g3
F-0.557573940254813
sba(ineural_net
Weight
p586
(dp587
g3
F-0.1726426315030881
sba(ineural_net
Weight
p588
(dp589
g3
F-0.059563480775338094
sba(ineural_net
Weight
p590
(dp591
g3
F-0.015415094514578377
sba(ineural_net
Weight
p592
(dp593
g3
F0.005063384866796659
sba(ineural_net
Weight
p594
(dp595
g3
F0.007919054017865083
sba(ineural_net
Weight
p596
(dp597
g3
F-0.014906272898458578
sba(ineural_net
Weight
p598
(dp599
g3
F-0.06862848985394798
sba(ineural_net
Weight
p600
(dp601
g3
F-0.25371870654616185
sba(ineural_net
Weight
p602
(dp603
g3
F-0.6988947094492263
sba(ineural_net
Weight
p604
(dp605
g3
F-0.6538017065776848
sba(ineural_net
Weight
p606
(dp607
g3
F0.7807367955310617
sba(ineural_net
Weight
p608
(dp609
g3
F0.37011402379892355
sba(ineural_net
Weight
p610
(dp611
g3
F-0.9870883827509742
sba(ineural_net
Weight
p612
(dp613
g3
F-0.5724596130471112
sba(ineural_net
Weight
p614
(dp615
g3
F-0.21201629462224597
sba(ineural_net
Weight
p616
(dp617
g3
F-0.07664730990329566
sba(ineural_net
Weight
p618
(dp619
g3
F-0.011052718641280256
sba(ineural_net
Weight
p620
(dp621
g3
F-0.011978032275857906
sba(ineural_net
Weight
p622
(dp623
g3
F0.004269215440406001
sba(ineural_net
Weight
p624
(dp625
g3
F-0.03022721726382308
sba(ineural_net
Weight
p626
(dp627
g3
F-0.14394424580112333
sba(ineural_net
Weight
p628
(dp629
g3
F-0.33660518477093404
sba(ineural_net
Weight
p630
(dp631
g3
F-0.4853566578366461
sba(ineural_net
Weight
p632
(dp633
g3
F-0.04466138087205249
sba(ineural_net
Weight
p634
(dp635
g3
F0.8092422315264104
sba(ineural_net
Weight
p636
(dp637
g3
F0.05274018089973992
sba(ineural_net
Weight
p638
(dp639
g3
F-0.9017501598028922
sba(ineural_net
Weight
p640
(dp641
g3
F-0.5622755619751734
sba(ineural_net
Weight
p642
(dp643
g3
F-0.2766737729856576
sba(ineural_net
Weight
p644
(dp645
g3
F-0.1275240714144401
sba(ineural_net
Weight
p646
(dp647
g3
F-0.04958639174003177
sba(ineural_net
Weight
p648
(dp649
g3
F-0.01242762478558524
sba(ineural_net
Weight
p650
(dp651
g3
F0.004073458501488341
sba(ineural_net
Weight
p652
(dp653
g3
F-0.042042996884024804
sba(ineural_net
Weight
p654
(dp655
g3
F-0.22208845380233508
sba(ineural_net
Weight
p656
(dp657
g3
F-0.3460456678094741
sba(ineural_net
Weight
p658
(dp659
g3
F-0.239605792629008
sba(ineural_net
Weight
p660
(dp661
g3
F0.040307583369218365
sba(ineural_net
Weight
p662
(dp663
g3
F0.3112330241290198
sba(ineural_net
Weight
p664
(dp665
g3
F-0.153078535780651
sba(ineural_net
Weight
p666
(dp667
g3
F-0.6520968712344022
sba(ineural_net
Weight
p668
(dp669
g3
F-0.5071674500129453
sba(ineural_net
Weight
p670
(dp671
g3
F-0.3069583207251402
sba(ineural_net
Weight
p672
(dp673
g3
F-0.15159149559725876
sba(ineural_net
Weight
p674
(dp675
g3
F-0.05756967748257924
sba(ineural_net
Weight
p676
(dp677
g3
F-0.010445249905995845
sba(ineural_net
Weight
p678
(dp679
g3
F-0.002237276874626532
sba(ineural_net
Weight
p680
(dp681
g3
F-0.010906720574447947
sba(ineural_net
Weight
p682
(dp683
g3
F-0.11773540335522703
sba(ineural_net
Weight
p684
(dp685
g3
F-0.11502231942881623
sba(ineural_net
Weight
p686
(dp687
g3
F-0.044787085101829834
sba(ineural_net
Weight
p688
(dp689
g3
F-0.22279677205564644
sba(ineural_net
Weight
p690
(dp691
g3
F-0.1910923224282153
sba(ineural_net
Weight
p692
(dp693
g3
F-0.008811781038144688
sba(ineural_net
Weight
p694
(dp695
g3
F-0.22509064029616083
sba(ineural_net
Weight
p696
(dp697
g3
F-0.34267800998100173
sba(ineural_net
Weight
p698
(dp699
g3
F-0.24002805361844184
sba(ineural_net
Weight
p700
(dp701
g3
F-0.11086024883164776
sba(ineural_net
Weight
p702
(dp703
g3
F-0.029038671811405542
sba(ineural_net
Weight
p704
(dp705
g3
F-0.00728982218773048
sba(ineural_net
Weight
p706
(dp707
g3
F0.00349130935307461
sba(ineural_net
Weight
p708
(dp709
g3
F0.009022775602855462
sba(ineural_net
Weight
p710
(dp711
g3
F0.00593854410323353
sba(ineural_net
Weight
p712
(dp713
g3
F0.019245426064763146
sba(ineural_net
Weight
p714
(dp715
g3
F-0.06030320843350539
sba(ineural_net
Weight
p716
(dp717
g3
F-0.4277045782301415
sba(ineural_net
Weight
p718
(dp719
g3
F-0.41788560331930724
sba(ineural_net
Weight
p720
(dp721
g3
F-0.0073487047808263204
sba(ineural_net
Weight
p722
(dp723
g3
F-0.007696184881382375
sba(ineural_net
Weight
p724
(dp725
g3
F-0.1120459197259439
sba(ineural_net
Weight
p726
(dp727
g3
F-0.1003827658827305
sba(ineural_net
Weight
p728
(dp729
g3
F-0.03824437198885398
sba(ineural_net
Weight
p730
(dp731
g3
F-0.013614010819028077
sba(ineural_net
Weight
p732
(dp733
g3
F-0.008460498175107812
sba(ineural_net
Weight
p734
(dp735
g3
F-0.008760972658375528
sba(ineural_net
Weight
p736
(dp737
g3
F-0.011074429307896322
sba(ineural_net
Weight
p738
(dp739
g3
F-0.005920795162236765
sba(ineural_net
Weight
p740
(dp741
g3
F-0.040536402376950706
sba(ineural_net
Weight
p742
(dp743
g3
F-0.1462484852113259
sba(ineural_net
Weight
p744
(dp745
g3
F-0.3008762511764568
sba(ineural_net
Weight
p746
(dp747
g3
F-0.3188671047639247
sba(ineural_net
Weight
p748
(dp749
g3
F-0.1569937019716234
sba(ineural_net
Weight
p750
(dp751
g3
F-0.05954038029554622
sba(ineural_net
Weight
p752
(dp753
g3
F-0.02975276160809896
sba(ineural_net
Weight
p754
(dp755
g3
F-0.0049346118261267315
sba(ineural_net
Weight
p756
(dp757
g3
F-0.0007315304015526024
sba(ineural_net
Weight
p758
(dp759
g3
F0.00013669428646063934
sba(ineural_net
Weight
p760
(dp761
g3
F0.007692496960738636
sba(ineural_net
Weight
p762
(dp763
g3
F0.0008957357729467326
sba(ineural_net
Weight
p764
(dp765
g3
F-0.0040288862589823405
sba(ineural_net
Weight
p766
(dp767
g3
F0.0045934168023592315
sba(ineural_net
Weight
p768
(dp769
g3
F-0.01689434788927688
sba(ineural_net
Weight
p770
(dp771
g3
F-0.03312537947033381
sba(ineural_net
Weight
p772
(dp773
g3
F-0.050513283185173105
sba(ineural_net
Weight
p774
(dp775
g3
F-0.06061709725279707
sba(ineural_net
Weight
p776
(dp777
g3
F-0.05283205470287164
sba(ineural_net
Weight
p778
(dp779
g3
F-0.003491963733571299
sba(ineural_net
Weight
p780
(dp781
g3
F-0.007786068933066077
sba(ineural_net
Weight
p782
(dp783
g3
F-0.0014673255334034935
sba(ineural_net
Weight
p784
(dp785
g3
F-0.0039003476291716924
sba(ineural_net
Weight
p786
(dp787
g3
F0.002772194119706065
sba(ineural_net
Weight
p788
(dp789
g3
F0.0058486756965204865
sba(ineural_net
Weight
p790
(dp791
g3
F-0.0047182030459564685
sba(ineural_net
Weight
p792
(dp793
g3
F-0.00044901387946300227
sba(ineural_net
Weight
p794
(dp795
g3
F0.0003506176605550308
sba(ineural_net
Weight
p796
(dp797
g3
F0.0043295837643128774
sba(ineural_net
Weight
p798
(dp799
g3
F0.012141374639211928
sba(ineural_net
Weight
p800
(dp801
g3
F-0.0020902799109698334
sba(ineural_net
Weight
p802
(dp803
g3
F-0.03563653332280802
sba(ineural_net
Weight
p804
(dp805
g3
F-0.09314868576214479
sba(ineural_net
Weight
p806
(dp807
g3
F-0.12366904301252571
sba(ineural_net
Weight
p808
(dp809
g3
F-0.11576070435183877
sba(ineural_net
Weight
p810
(dp811
g3
F-0.07450601354701229
sba(ineural_net
Weight
p812
(dp813
g3
F-0.037847429772918724
sba(ineural_net
Weight
p814
(dp815
g3
F-0.0013569542446057502
sba(ineural_net
Weight
p816
(dp817
g3
F-0.0012806564766124082
sba(ineural_net
Weight
p818
(dp819
g3
F0.00013943626709203398
sba(ineural_net
Weight
p820
(dp821
g3
F-0.0058998569226269395
sba(ineural_net
Weight
p822
(dp823
g3
F-0.010295386559082234
sba(ineural_net
Weight
p824
(dp825
g3
F0.018762711279311475
sba(ineural_net
Weight
p826
(dp827
g3
F0.0725314399444074
sba(ineural_net
Weight
p828
(dp829
g3
F0.16634428111640784
sba(ineural_net
Weight
p830
(dp831
g3
F0.255792068222038
sba(ineural_net
Weight
p832
(dp833
g3
F0.24235605403953406
sba(ineural_net
Weight
p834
(dp835
g3
F0.1581129818376163
sba(ineural_net
Weight
p836
(dp837
g3
F0.0713028064180744
sba(ineural_net
Weight
p838
(dp839
g3
F-0.04093152162720877
sba(ineural_net
Weight
p840
(dp841
g3
F-0.07136413256362834
sba(ineural_net
Weight
p842
(dp843
g3
F-0.0468880354427458
sba(ineural_net
Weight
p844
(dp845
g3
F-0.002356488152107557
sba(ineural_net
Weight
p846
(dp847
g3
F-0.0035488289892598866
sba(ineural_net
Weight
p848
(dp849
g3
F-0.00575386128175435
sba(ineural_net
Weight
p850
(dp851
g3
F-0.0013504777281919162
sba(ineural_net
Weight
p852
(dp853
g3
F0.0665847838816399
sba(ineural_net
Weight
p854
(dp855
g3
F0.2381286207378221
sba(ineural_net
Weight
p856
(dp857
g3
F0.4345772858399373
sba(ineural_net
Weight
p858
(dp859
g3
F0.5738836909617792
sba(ineural_net
Weight
p860
(dp861
g3
F0.6132044798168951
sba(ineural_net
Weight
p862
(dp863
g3
F0.5472883580411539
sba(ineural_net
Weight
p864
(dp865
g3
F0.3189233671035234
sba(ineural_net
Weight
p866
(dp867
g3
F0.01811633410701194
sba(ineural_net
Weight
p868
(dp869
g3
F-0.1313037546177496
sba(ineural_net
Weight
p870
(dp871
g3
F-0.09805923065605701
sba(ineural_net
Weight
p872
(dp873
g3
F-0.03944579601672653
sba(ineural_net
Weight
p874
(dp875
g3
F0.0012263675543643432
sba(ineural_net
Weight
p876
(dp877
g3
F-0.0010093395883374445
sba(ineural_net
Weight
p878
(dp879
g3
F0.011174334609297292
sba(ineural_net
Weight
p880
(dp881
g3
F0.09718238478349754
sba(ineural_net
Weight
p882
(dp883
g3
F0.23623653423889152
sba(ineural_net
Weight
p884
(dp885
g3
F0.2719642469445927
sba(ineural_net
Weight
p886
(dp887
g3
F0.26297242527371484
sba(ineural_net
Weight
p888
(dp889
g3
F0.177963440452946
sba(ineural_net
Weight
p890
(dp891
g3
F0.15371365646350107
sba(ineural_net
Weight
p892
(dp893
g3
F0.053916703402615784
sba(ineural_net
Weight
p894
(dp895
g3
F-0.13501169631881935
sba(ineural_net
Weight
p896
(dp897
g3
F-0.11511989837297461
sba(ineural_net
Weight
p898
(dp899
g3
F-0.09681455606684163
sba(ineural_net
Weight
p900
(dp901
g3
F-0.06255419813519134
sba(ineural_net
Weight
p902
(dp903
g3
F-0.011962855406121794
sba(ineural_net
Weight
p904
(dp905
g3
F0.0013558332376600133
sba(ineural_net
Weight
p906
(dp907
g3
F-0.0019252636386732263
sba(ineural_net
Weight
p908
(dp909
g3
F-0.004547064025594584
sba(ineural_net
Weight
p910
(dp911
g3
F-0.20645029052787747
sba(ineural_net
Weight
p912
(dp913
g3
F-0.382862260115369
sba(ineural_net
Weight
p914
(dp915
g3
F-0.460604438969073
sba(ineural_net
Weight
p916
(dp917
g3
F-0.5896556484945344
sba(ineural_net
Weight
p918
(dp919
g3
F-0.44203778214924094
sba(ineural_net
Weight
p920
(dp921
g3
F-0.11848448979351496
sba(ineural_net
Weight
p922
(dp923
g3
F-0.061973250155790055
sba(ineural_net
Weight
p924
(dp925
g3
F-0.11217207975476895
sba(ineural_net
Weight
p926
(dp927
g3
F-0.11975938671224574
sba(ineural_net
Weight
p928
(dp929
g3
F-0.05105252770562826
sba(ineural_net
Weight
p930
(dp931
g3
F0.0009333196750683948
sba(ineural_net
Weight
p932
(dp933
g3
F-0.011075154995604877
sba(ineural_net
Weight
p934
(dp935
g3
F-0.024629015283694475
sba(ineural_net
Weight
p936
(dp937
g3
F-0.27451401321468183
sba(ineural_net
Weight
p938
(dp939
g3
F-0.8032338728643272
sba(ineural_net
Weight
p940
(dp941
g3
F-1.0834797055175691
sba(ineural_net
Weight
p942
(dp943
g3
F-1.0570125582631318
sba(ineural_net
Weight
p944
(dp945
g3
F-1.1515301937149398
sba(ineural_net
Weight
p946
(dp947
g3
F-0.8284606512856398
sba(ineural_net
Weight
p948
(dp949
g3
F-0.06888133520238296
sba(ineural_net
Weight
p950
(dp951
g3
F0.13003870568580544
sba(ineural_net
Weight
p952
(dp953
g3
F-0.22555993948442388
sba(ineural_net
Weight
p954
(dp955
g3
F-0.2742215515832041
sba(ineural_net
Weight
p956
(dp957
g3
F-0.057186251486290356
sba(ineural_net
Weight
p958
(dp959
g3
F0.00541847485783819
sba(ineural_net
Weight
p960
(dp961
g3
F0.006773134565412949
sba(ineural_net
Weight
p962
(dp963
g3
F-0.054233004019999156
sba(ineural_net
Weight
p964
(dp965
g3
F-0.4413370769132684
sba(ineural_net
Weight
p966
(dp967
g3
F-0.9231733716926742
sba(ineural_net
Weight
p968
(dp969
g3
F-0.9732767448686626
sba(ineural_net
Weight
p970
(dp971
g3
F-0.6853439936473895
sba(ineural_net
Weight
p972
(dp973
g3
F-0.8702474941289169
sba(ineural_net
Weight
p974
(dp975
g3
F-0.7682811211253187
sba(ineural_net
Weight
p976
(dp977
g3
F-0.12496477327193713
sba(ineural_net
Weight
p978
(dp979
g3
F-0.1367917675298108
sba(ineural_net
Weight
p980
(dp981
g3
F-0.5167580366856436
sba(ineural_net
Weight
p982
(dp983
g3
F-0.47099729472223195
sba(ineural_net
Weight
p984
(dp985
g3
F-0.11460780385901492
sba(ineural_net
Weight
p986
(dp987
g3
F0.0006799390024110621
sba(ineural_net
Weight
p988
(dp989
g3
F0.0057098643280885705
sba(ineural_net
Weight
p990
(dp991
g3
F-0.0129576478589098
sba(ineural_net
Weight
p992
(dp993
g3
F-0.1937430331220181
sba(ineural_net
Weight
p994
(dp995
g3
F-0.3846592917806441
sba(ineural_net
Weight
p996
(dp997
g3
F-0.1567370134679135
sba(ineural_net
Weight
p998
(dp999
g3
F0.12903230455947903
sba(ineural_net
Weight
p1000
(dp1001
g3
F-0.1760532407563347
sba(ineural_net
Weight
p1002
(dp1003
g3
F-0.20629637570887546
sba(ineural_net
Weight
p1004
(dp1005
g3
F-0.036219609106989285
sba(ineural_net
Weight
p1006
(dp1007
g3
F-0.42647312170909174
sba(ineural_net
Weight
p1008
(dp1009
g3
F-0.6292258623677821
sba(ineural_net
Weight
p1010
(dp1011
g3
F-0.4166085104925187
sba(ineural_net
Weight
p1012
(dp1013
g3
F-0.06512260723207904
sba(ineural_net
Weight
p1014
(dp1015
g3
F0.016096805592425174
sba(ineural_net
Weight
p1016
(dp1017
g3
F0.0033215533321834067
sba(ineural_net
Weight
p1018
(dp1019
g3
F0.1306650690626047
sba(ineural_net
Weight
p1020
(dp1021
g3
F0.26412109294078984
sba(ineural_net
Weight
p1022
(dp1023
g3
F0.29846525323557016
sba(ineural_net
Weight
p1024
(dp1025
g3
F0.40410683072798653
sba(ineural_net
Weight
p1026
(dp1027
g3
F0.3960657690757107
sba(ineural_net
Weight
p1028
(dp1029
g3
F0.22852932092947426
sba(ineural_net
Weight
p1030
(dp1031
g3
F0.3390211158518315
sba(ineural_net
Weight
p1032
(dp1033
g3
F0.1700321518825802
sba(ineural_net
Weight
p1034
(dp1035
g3
F-0.23627218250416948
sba(ineural_net
Weight
p1036
(dp1037
g3
F-0.13643859214158952
sba(ineural_net
Weight
p1038
(dp1039
g3
F0.14619999585503557
sba(ineural_net
Weight
p1040
(dp1041
g3
F0.16224027211073713
sba(ineural_net
Weight
p1042
(dp1043
g3
F0.03470318817662845
sba(ineural_net
Weight
p1044
(dp1045
g3
F-0.012834897059952216
sba(ineural_net
Weight
p1046
(dp1047
g3
F0.20090920728941417
sba(ineural_net
Weight
p1048
(dp1049
g3
F0.5625357888872399
sba(ineural_net
Weight
p1050
(dp1051
g3
F0.7394209282084132
sba(ineural_net
Weight
p1052
(dp1053
g3
F0.6046451518349166
sba(ineural_net
Weight
p1054
(dp1055
g3
F0.3086390335424572
sba(ineural_net
Weight
p1056
(dp1057
g3
F0.16996101748280912
sba(ineural_net
Weight
p1058
(dp1059
g3
F0.19467094427250653
sba(ineural_net
Weight
p1060
(dp1061
g3
F0.14291887428705136
sba(ineural_net
Weight
p1062
(dp1063
g3
F0.22147900778405455
sba(ineural_net
Weight
p1064
(dp1065
g3
F0.5367465790752948
sba(ineural_net
Weight
p1066
(dp1067
g3
F0.612395007248147
sba(ineural_net
Weight
p1068
(dp1069
g3
F0.2989592803004506
sba(ineural_net
Weight
p1070
(dp1071
g3
F0.032942419552599286
sba(ineural_net
Weight
p1072
(dp1073
g3
F-0.0045321300152467185
sba(ineural_net
Weight
p1074
(dp1075
g3
F0.11463835513213153
sba(ineural_net
Weight
p1076
(dp1077
g3
F0.4195894508488328
sba(ineural_net
Weight
p1078
(dp1079
g3
F0.5820819398328223
sba(ineural_net
Weight
p1080
(dp1081
g3
F0.29896740909834607
sba(ineural_net
Weight
p1082
(dp1083
g3
F-0.1410928826723346
sba(ineural_net
Weight
p1084
(dp1085
g3
F-0.4202983848410399
sba(ineural_net
Weight
p1086
(dp1087
g3
F-0.4371930283821832
sba(ineural_net
Weight
p1088
(dp1089
g3
F-0.05232752050528754
sba(ineural_net
Weight
p1090
(dp1091
g3
F0.3889171923470892
sba(ineural_net
Weight
p1092
(dp1093
g3
F0.6171476152146123
sba(ineural_net
Weight
p1094
(dp1095
g3
F0.49831473606211296
sba(ineural_net
Weight
p1096
(dp1097
g3
F0.18625972386219394
sba(ineural_net
Weight
p1098
(dp1099
g3
F0.005258075890765482
sba(ineural_net
Weight
p1100
(dp1101
g3
F0.0021184429863986974
sba(ineural_net
Weight
p1102
(dp1103
g3
F0.01752510300863844
sba(ineural_net
Weight
p1104
(dp1105
g3
F0.04480897218307769
sba(ineural_net
Weight
p1106
(dp1107
g3
F-0.007685971348450717
sba(ineural_net
Weight
p1108
(dp1109
g3
F-0.2681256799127103
sba(ineural_net
Weight
p1110
(dp1111
g3
F-0.5357097741845426
sba(ineural_net
Weight
p1112
(dp1113
g3
F-0.6522699826777406
sba(ineural_net
Weight
p1114
(dp1115
g3
F-0.5367950168549166
sba(ineural_net
Weight
p1116
(dp1117
g3
F-0.2184989639133803
sba(ineural_net
Weight
p1118
(dp1119
g3
F0.05071235103724929
sba(ineural_net
Weight
p1120
(dp1121
g3
F0.1615734994456997
sba(ineural_net
Weight
p1122
(dp1123
g3
F0.14130997202023074
sba(ineural_net
Weight
p1124
(dp1125
g3
F0.031873049980527465
sba(ineural_net
Weight
p1126
(dp1127
g3
F0.009270735811962283
sba(ineural_net
Weight
p1128
(dp1129
g3
F0.004157386043733717
sba(ineural_net
Weight
p1130
(dp1131
g3
F-0.009248681058383581
sba(ineural_net
Weight
p1132
(dp1133
g3
F-0.05880337141918775
sba(ineural_net
Weight
p1134
(dp1135
g3
F-0.15865521178318176
sba(ineural_net
Weight
p1136
(dp1137
g3
F-0.272141935613603
sba(ineural_net
Weight
p1138
(dp1139
g3
F-0.3190705473050058
sba(ineural_net
Weight
p1140
(dp1141
g3
F-0.29503647819769685
sba(ineural_net
Weight
p1142
(dp1143
g3
F-0.22373901782911426
sba(ineural_net
Weight
p1144
(dp1145
g3
F-0.16161458255390707
sba(ineural_net
Weight
p1146
(dp1147
g3
F-0.10758515171582461
sba(ineural_net
Weight
p1148
(dp1149
g3
F-0.04768397528701288
sba(ineural_net
Weight
p1150
(dp1151
g3
F-0.008914406024389383
sba(ineural_net
Weight
p1152
(dp1153
g3
F0.0026904379859498733
sba(ineural_net
Weight
p1154
(dp1155
g3
F-0.0061854600749899485
sba(ineural_net
Weight
p1156
(dp1157
g3
F0.007525644501222216
sba(ineural_net
Weight
p1158
(dp1159
g3
F0.007881275309920055
sba(ineural_net
Weight
p1160
(dp1161
g3
F-0.014429268050880894
sba(ineural_net
Weight
p1162
(dp1163
g3
F-0.012112412607871022
sba(ineural_net
Weight
p1164
(dp1165
g3
F-0.03616769490671425
sba(ineural_net
Weight
p1166
(dp1167
g3
F-0.021014247214655613
sba(ineural_net
Weight
p1168
(dp1169
g3
F-0.02497981541556799
sba(ineural_net
Weight
p1170
(dp1171
g3
F-0.03380081317026968
sba(ineural_net
Weight
p1172
(dp1173
g3
F-0.031427284423765176
sba(ineural_net
Weight
p1174
(dp1175
g3
F-0.02564141244503777
sba(ineural_net
Weight
p1176
(dp1177
g3
F-0.008346381250162304
sba(ineural_net
Weight
p1178
(dp1179
g3
F-0.00975803171197585
sba(ineural_net
Weight
p1180
(dp1181
g3
F-0.008034602730352385
sba(ineural_net
Weight
p1182
(dp1183
g3
F-0.00025781734406865077
sba(ineural_net
Weight
p1184
(dp1185
g3
F0.006877384739662906
sba(ineural_net
Weight
p1186
(dp1187
g3
F-0.0031301181248354973
sba(ineural_net
Weight
p1188
(dp1189
g3
F-0.009394413038014379
sba(ineural_net
Weight
p1190
(dp1191
g3
F-0.009793141354253876
sba(ineural_net
Weight
p1192
(dp1193
g3
F-0.010163772314007651
sba(ineural_net
Weight
p1194
(dp1195
g3
F0.0006456491070214733
sba(ineural_net
Weight
p1196
(dp1197
g3
F-0.011234132512330696
sba(ineural_net
Weight
p1198
(dp1199
g3
F-0.007672863763648475
sba(ineural_net
Weight
p1200
(dp1201
g3
F-0.011176424790405074
sba(ineural_net
Weight
p1202
(dp1203
g3
F-0.017518838682253183
sba(ineural_net
Weight
p1204
(dp1205
g3
F-0.0007264896344552882
sba(ineural_net
Weight
p1206
(dp1207
g3
F-0.00980435380186427
sba(ineural_net
Weight
p1208
(dp1209
g3
F0.0012605470580026952
sba(ineural_net
Weight
p1210
(dp1211
g3
F-0.005452254962697151
sba(ineural_net
Weight
p1212
(dp1213
g3
F0.00445461007847487
sba(ineural_net
Weight
p1214
(dp1215
g3
F-0.005901405098015869
sba(ineural_net
Weight
p1216
(dp1217
g3
F0.005271690439510142
sba(ineural_net
Weight
p1218
(dp1219
g3
F0.003714971996564357
sba(ineural_net
Weight
p1220
(dp1221
g3
F0.033388907297760576
sba(ineural_net
Weight
p1222
(dp1223
g3
F0.05067039705509504
sba(ineural_net
Weight
p1224
(dp1225
g3
F0.04456953585386764
sba(ineural_net
Weight
p1226
(dp1227
g3
F-0.052542222671269304
sba(ineural_net
Weight
p1228
(dp1229
g3
F-0.16342569322084666
sba(ineural_net
Weight
p1230
(dp1231
g3
F-0.17277623529212446
sba(ineural_net
Weight
p1232
(dp1233
g3
F-0.150708581602057
sba(ineural_net
Weight
p1234
(dp1235
g3
F-0.14277707431391462
sba(ineural_net
Weight
p1236
(dp1237
g3
F-0.07983278063797201
sba(ineural_net
Weight
p1238
(dp1239
g3
F-0.0064592768920606934
sba(ineural_net
Weight
p1240
(dp1241
g3
F-0.00557383787100782
sba(ineural_net
Weight
p1242
(dp1243
g3
F0.00526140873645242
sba(ineural_net
Weight
p1244
(dp1245
g3
F0.011113633998896751
sba(ineural_net
Weight
p1246
(dp1247
g3
F0.11229383936512335
sba(ineural_net
Weight
p1248
(dp1249
g3
F0.3076606310462985
sba(ineural_net
Weight
p1250
(dp1251
g3
F0.4978263004145606
sba(ineural_net
Weight
p1252
(dp1253
g3
F0.5529912349774924
sba(ineural_net
Weight
p1254
(dp1255
g3
F0.386876581384758
sba(ineural_net
Weight
p1256
(dp1257
g3
F0.085356960875737
sba(ineural_net
Weight
p1258
(dp1259
g3
F-0.12978125383861525
sba(ineural_net
Weight
p1260
(dp1261
g3
F-0.24629227411691176
sba(ineural_net
Weight
p1262
(dp1263
g3
F-0.28268470338454543
sba(ineural_net
Weight
p1264
(dp1265
g3
F-0.21096293187884244
sba(ineural_net
Weight
p1266
(dp1267
g3
F-0.052738993890725006
sba(ineural_net
Weight
p1268
(dp1269
g3
F-0.008527717975511953
sba(ineural_net
Weight
p1270
(dp1271
g3
F-0.012398311020322418
sba(ineural_net
Weight
p1272
(dp1273
g3
F0.029841678033725436
sba(ineural_net
Weight
p1274
(dp1275
g3
F0.21753002450612324
sba(ineural_net
Weight
p1276
(dp1277
g3
F0.33753683941979934
sba(ineural_net
Weight
p1278
(dp1279
g3
F0.2711602142396276
sba(ineural_net
Weight
p1280
(dp1281
g3
F0.16864072452662934
sba(ineural_net
Weight
p1282
(dp1283
g3
F0.0633527988181083
sba(ineural_net
Weight
p1284
(dp1285
g3
F0.04613097416453714
sba(ineural_net
Weight
p1286
(dp1287
g3
F0.019629087008629278
sba(ineural_net
Weight
p1288
(dp1289
g3
F0.011833537575006601
sba(ineural_net
Weight
p1290
(dp1291
g3
F-0.08424720150880144
sba(ineural_net
Weight
p1292
(dp1293
g3
F-0.1833624472236695
sba(ineural_net
Weight
p1294
(dp1295
g3
F-0.06418631095148303
sba(ineural_net
Weight
p1296
(dp1297
g3
F-0.0060486887340654594
sba(ineural_net
Weight
p1298
(dp1299
g3
F-0.009648204258786906
sba(ineural_net
Weight
p1300
(dp1301
g3
F0.0068521498166022885
sba(ineural_net
Weight
p1302
(dp1303
g3
F0.015661728261653275
sba(ineural_net
Weight
p1304
(dp1305
g3
F-0.3085126355256448
sba(ineural_net
Weight
p1306
(dp1307
g3
F-0.8975401809483697
sba(ineural_net
Weight
p1308
(dp1309
g3
F-1.0919945275535405
sba(ineural_net
Weight
p1310
(dp1311
g3
F-0.6748633092076558
sba(ineural_net
Weight
p1312
(dp1313
g3
F-0.06201867781366466
sba(ineural_net
Weight
p1314
(dp1315
g3
F0.17193948235156328
sba(ineural_net
Weight
p1316
(dp1317
g3
F0.17175286978891374
sba(ineural_net
Weight
p1318
(dp1319
g3
F-0.0033325324530384176
sba(ineural_net
Weight
p1320
(dp1321
g3
F-0.11657786341502718
sba(ineural_net
Weight
p1322
(dp1323
g3
F-0.04540712639947288
sba(ineural_net
Weight
p1324
(dp1325
g3
F0.001137363257142568
sba(ineural_net
Weight
p1326
(dp1327
g3
F-0.014730000338819205
sba(ineural_net
Weight
p1328
(dp1329
g3
F-0.04537559710146123
sba(ineural_net
Weight
p1330
(dp1331
g3
F-0.21727833082511072
sba(ineural_net
Weight
p1332
(dp1333
g3
F-0.7600316112235425
sba(ineural_net
Weight
p1334
(dp1335
g3
F-1.2121708446341093
sba(ineural_net
Weight
p1336
(dp1337
g3
F-0.733287489585666
sba(ineural_net
Weight
p1338
(dp1339
g3
F0.0899851094508888
sba(ineural_net
Weight
p1340
(dp1341
g3
F0.4802400137432118
sba(ineural_net
Weight
p1342
(dp1343
g3
F0.3124058621416962
sba(ineural_net
Weight
p1344
(dp1345
g3
F-0.07188112349439504
sba(ineural_net
Weight
p1346
(dp1347
g3
F-0.2614757537107544
sba(ineural_net
Weight
p1348
(dp1349
g3
F-0.17914859699111332
sba(ineural_net
Weight
p1350
(dp1351
g3
F-0.02172740828140271
sba(ineural_net
Weight
p1352
(dp1353
g3
F-0.0007474925171589166
sba(ineural_net
Weight
p1354
(dp1355
g3
F-0.014824075090357634
sba(ineural_net
Weight
p1356
(dp1357
g3
F-0.0335593671189664
sba(ineural_net
Weight
p1358
(dp1359
g3
F-0.26148579774791747
sba(ineural_net
Weight
p1360
(dp1361
g3
F-0.6250356397595217
sba(ineural_net
Weight
p1362
(dp1363
g3
F-0.5749709426947587
sba(ineural_net
Weight
p1364
(dp1365
g3
F0.3247950328398447
sba(ineural_net
Weight
p1366
(dp1367
g3
F0.622061367549336
sba(ineural_net
Weight
p1368
(dp1369
g3
F0.3131023756166442
sba(ineural_net
Weight
p1370
(dp1371
g3
F0.1812738207252484
sba(ineural_net
Weight
p1372
(dp1373
g3
F-0.17369455267202955
sba(ineural_net
Weight
p1374
(dp1375
g3
F-0.3353222876412772
sba(ineural_net
Weight
p1376
(dp1377
g3
F-0.2098534912985784
sba(ineural_net
Weight
p1378
(dp1379
g3
F-0.053187656936189896
sba(ineural_net
Weight
p1380
(dp1381
g3
F-0.01078736490780018
sba(ineural_net
Weight
p1382
(dp1383
g3
F0.001670707946594261
sba(ineural_net
Weight
p1384
(dp1385
g3
F-0.009000022201495369
sba(ineural_net
Weight
p1386
(dp1387
g3
F-0.18483480800203328
sba(ineural_net
Weight
p1388
(dp1389
g3
F-0.4469666348272636
sba(ineural_net
Weight
p1390
(dp1391
g3
F-0.3620806653735157
sba(ineural_net
Weight
p1392
(dp1393
g3
F-0.009455246783086551
sba(ineural_net
Weight
p1394
(dp1395
g3
F-0.3365157859613091
sba(ineural_net
Weight
p1396
(dp1397
g3
F-0.4629338598869746
sba(ineural_net
Weight
p1398
(dp1399
g3
F0.1573828967421167
sba(ineural_net
Weight
p1400
(dp1401
g3
F0.2389361675177229
sba(ineural_net
Weight
p1402
(dp1403
g3
F-0.05140784872919575
sba(ineural_net
Weight
p1404
(dp1405
g3
F-0.14307862819761857
sba(ineural_net
Weight
p1406
(dp1407
g3
F-0.04988848728357606
sba(ineural_net
Weight
p1408
(dp1409
g3
F0.004378094181215908
sba(ineural_net
Weight
p1410
(dp1411
g3
F0.009667727363567644
sba(ineural_net
Weight
p1412
(dp1413
g3
F0.05510952166601819
sba(ineural_net
Weight
p1414
(dp1415
g3
F-0.06146441865244572
sba(ineural_net
Weight
p1416
(dp1417
g3
F-0.4051261251598366
sba(ineural_net
Weight
p1418
(dp1419
g3
F-0.7170500674599911
sba(ineural_net
Weight
p1420
(dp1421
g3
F-0.9793653632566026
sba(ineural_net
Weight
p1422
(dp1423
g3
F-1.3621146796081198
sba(ineural_net
Weight
p1424
(dp1425
g3
F-0.9238887446384846
sba(ineural_net
Weight
p1426
(dp1427
g3
F0.20065608915348165
sba(ineural_net
Weight
p1428
(dp1429
g3
F0.4877829846112006
sba(ineural_net
Weight
p1430
(dp1431
g3
F0.15614627782299292
sba(ineural_net
Weight
p1432
(dp1433
g3
F-0.07362184097248423
sba(ineural_net
Weight
p1434
(dp1435
g3
F-0.059349357504428456
sba(ineural_net
Weight
p1436
(dp1437
g3
F-0.004568105315202769
sba(ineural_net
Weight
p1438
(dp1439
g3
F0.015509341828697967
sba(ineural_net
Weight
p1440
(dp1441
g3
F0.1613918969166717
sba(ineural_net
Weight
p1442
(dp1443
g3
F0.16642470124582673
sba(ineural_net
Weight
p1444
(dp1445
g3
F-0.19720848373862676
sba(ineural_net
Weight
p1446
(dp1447
g3
F-0.6053275940462982
sba(ineural_net
Weight
p1448
(dp1449
g3
F-0.9157807909566841
sba(ineural_net
Weight
p1450
(dp1451
g3
F-1.0814865070382496
sba(ineural_net
Weight
p1452
(dp1453
g3
F-0.5744917692312457
sba(ineural_net
Weight
p1454
(dp1455
g3
F0.22163309033387435
sba(ineural_net
Weight
p1456
(dp1457
g3
F0.3613001065495925
sba(ineural_net
Weight
p1458
(dp1459
g3
F0.08147567647837384
sba(ineural_net
Weight
p1460
(dp1461
g3
F-0.09006145271960274
sba(ineural_net
Weight
p1462
(dp1463
g3
F-0.07706520460615254
sba(ineural_net
Weight
p1464
(dp1465
g3
F-0.015549627417569815
sba(ineural_net
Weight
p1466
(dp1467
g3
F0.025209461758495148
sba(ineural_net
Weight
p1468
(dp1469
g3
F0.2172586582506936
sba(ineural_net
Weight
p1470
(dp1471
g3
F0.42372447275644065
sba(ineural_net
Weight
p1472
(dp1473
g3
F0.26329659966208546
sba(ineural_net
Weight
p1474
(dp1475
g3
F0.042146656427515916
sba(ineural_net
Weight
p1476
(dp1477
g3
F-0.08237777145656557
sba(ineural_net
Weight
p1478
(dp1479
g3
F-0.1997885915002468
sba(ineural_net
Weight
p1480
(dp1481
g3
F-0.08531999548795059
sba(ineural_net
Weight
p1482
(dp1483
g3
F0.08345609283541928
sba(ineural_net
Weight
p1484
(dp1485
g3
F0.07785767329643456
sba(ineural_net
Weight
p1486
(dp1487
g3
F-0.05244379795429117
sba(ineural_net
Weight
p1488
(dp1489
g3
F-0.10873526056844002
sba(ineural_net
Weight
p1490
(dp1491
g3
F-0.033580397021030925
sba(ineural_net
Weight
p1492
(dp1493
g3
F-0.002869938944620993
sba(ineural_net
Weight
p1494
(dp1495
g3
F0.007582454529495346
sba(ineural_net
Weight
p1496
(dp1497
g3
F0.146064419029645
sba(ineural_net
Weight
p1498
(dp1499
g3
F0.36696828505888757
sba(ineural_net
Weight
p1500
(dp1501
g3
F0.49143992209738213
sba(ineural_net
Weight
p1502
(dp1503
g3
F0.45489502692425376
sba(ineural_net
Weight
p1504
(dp1505
g3
F0.3093166888902053
sba(ineural_net
Weight
p1506
(dp1507
g3
F0.08761530330354489
sba(ineural_net
Weight
p1508
(dp1509
g3
F-0.11156479520457531
sba(ineural_net
Weight
p1510
(dp1511
g3
F-0.14980592501661372
sba(ineural_net
Weight
p1512
(dp1513
g3
F-0.09258515914869822
sba(ineural_net
Weight
p1514
(dp1515
g3
F-0.0645214801972532
sba(ineural_net
Weight
p1516
(dp1517
g3
F-0.049226169876301906
sba(ineural_net
Weight
p1518
(dp1519
g3
F-0.005557176824939228
sba(ineural_net
Weight
p1520
(dp1521
g3
F0.007718685195894588
sba(ineural_net
Weight
p1522
(dp1523
g3
F0.00014670544465406835
sba(ineural_net
Weight
p1524
(dp1525
g3
F0.028116902319533905
sba(ineural_net
Weight
p1526
(dp1527
g3
F0.1213813064361932
sba(ineural_net
Weight
p1528
(dp1529
g3
F0.2344991691854188
sba(ineural_net
Weight
p1530
(dp1531
g3
F0.22937604751820972
sba(ineural_net
Weight
p1532
(dp1533
g3
F0.09514640262540441
sba(ineural_net
Weight
p1534
(dp1535
g3
F-0.08440500260259731
sba(ineural_net
Weight
p1536
(dp1537
g3
F-0.1827504669989893
sba(ineural_net
Weight
p1538
(dp1539
g3
F-0.17952370009959662
sba(ineural_net
Weight
p1540
(dp1541
g3
F-0.08855499291350794
sba(ineural_net
Weight
p1542
(dp1543
g3
F-0.03317508478715821
sba(ineural_net
Weight
p1544
(dp1545
g3
F-0.014146504831021523
sba(ineural_net
Weight
p1546
(dp1547
g3
F0.009151538514862459
sba(ineural_net
Weight
p1548
(dp1549
g3
F-0.0002805862032039322
sba(ineural_net
Weight
p1550
(dp1551
g3
F0.003789258918677355
sba(ineural_net
Weight
p1552
(dp1553
g3
F-0.0082327391487509
sba(ineural_net
Weight
p1554
(dp1555
g3
F-0.00589472919863434
sba(ineural_net
Weight
p1556
(dp1557
g3
F-0.0026702815763330664
sba(ineural_net
Weight
p1558
(dp1559
g3
F-0.035242180912677175
sba(ineural_net
Weight
p1560
(dp1561
g3
F-0.04756949483337022
sba(ineural_net
Weight
p1562
(dp1563
g3
F-0.08786737025367716
sba(ineural_net
Weight
p1564
(dp1565
g3
F-0.08432229276443369
sba(ineural_net
Weight
p1566
(dp1567
g3
F-0.05597266033762522
sba(ineural_net
Weight
p1568
(dp1569
g3
F-0.017551883102714456
sba(ineural_net
Weight
p1570
(dp1571
g3
F0.004557473379661178
sba(ineural_net
Weight
p1572
(dp1573
g3
F0.008644150202924498
sba(ineural_net
Weight
p1574
(dp1575
g3
F-0.00954543606690178
sba(ineural_net
Weight
p1576
(dp1577
g3
F-0.006452646858078357
sba(ineural_net
Weight
p1578
(dp1579
g3
F-0.007394058187706259
sba(ineural_net
Weight
p1580
(dp1581
g3
F-0.004587999728846138
sba(ineural_net
Weight
p1582
(dp1583
g3
F0.00917824601013533
sba(ineural_net
Weight
p1584
(dp1585
g3
F-0.007084214429831104
sba(ineural_net
Weight
p1586
(dp1587
g3
F-0.011797301732689744
sba(ineural_net
Weight
p1588
(dp1589
g3
F-0.050259243794217166
sba(ineural_net
Weight
p1590
(dp1591
g3
F-0.09382011661436976
sba(ineural_net
Weight
p1592
(dp1593
g3
F-0.11583276776805124
sba(ineural_net
Weight
p1594
(dp1595
g3
F-0.07669357303328805
sba(ineural_net
Weight
p1596
(dp1597
g3
F-0.05325875812292629
sba(ineural_net
Weight
p1598
(dp1599
g3
F-0.026182539148866073
sba(ineural_net
Weight
p1600
(dp1601
g3
F-0.007311284960962375
sba(ineural_net
Weight
p1602
(dp1603
g3
F-0.011270385819827469
sba(ineural_net
Weight
p1604
(dp1605
g3
F0.0026082026450512576
sba(ineural_net
Weight
p1606
(dp1607
g3
F0.0009051123893859606
sba(ineural_net
Weight
p1608
(dp1609
g3
F0.007137446427444657
sba(ineural_net
Weight
p1610
(dp1611
g3
F-0.0030705179042661212
sba(ineural_net
Weight
p1612
(dp1613
g3
F-0.002169387352281319
sba(ineural_net
Weight
p1614
(dp1615
g3
F-0.02126581018628825
sba(ineural_net
Weight
p1616
(dp1617
g3
F-0.1632671931642527
sba(ineural_net
Weight
p1618
(dp1619
g3
F-0.31485470636201696
sba(ineural_net
Weight
p1620
(dp1621
g3
F-0.3730705117009842
sba(ineural_net
Weight
p1622
(dp1623
g3
F-0.333779872446388
sba(ineural_net
Weight
p1624
(dp1625
g3
F-0.2098123214883869
sba(ineural_net
Weight
p1626
(dp1627
g3
F-0.08639887803682332
sba(ineural_net
Weight
p1628
(dp1629
g3
F-0.0031828378891795785
sba(ineural_net
Weight
p1630
(dp1631
g3
F0.014621174148521234
sba(ineural_net
Weight
p1632
(dp1633
g3
F0.012440612101855734
sba(ineural_net
Weight
p1634
(dp1635
g3
F0.009161421020589424
sba(ineural_net
Weight
p1636
(dp1637
g3
F-0.004085861957529458
sba(ineural_net
Weight
p1638
(dp1639
g3
F-0.002365425789855216
sba(ineural_net
Weight
p1640
(dp1641
g3
F0.018191816451686788
sba(ineural_net
Weight
p1642
(dp1643
g3
F0.012138510770691157
sba(ineural_net
Weight
p1644
(dp1645
g3
F-0.12198954185338073
sba(ineural_net
Weight
p1646
(dp1647
g3
F-0.34439911296458625
sba(ineural_net
Weight
p1648
(dp1649
g3
F-0.6357492282625186
sba(ineural_net
Weight
p1650
(dp1651
g3
F-0.6841720983174285
sba(ineural_net
Weight
p1652
(dp1653
g3
F-0.31320204000283364
sba(ineural_net
Weight
p1654
(dp1655
g3
F0.0568797166999925
sba(ineural_net
Weight
p1656
(dp1657
g3
F0.20330375058827885
sba(ineural_net
Weight
p1658
(dp1659
g3
F0.1580172882555954
sba(ineural_net
Weight
p1660
(dp1661
g3
F0.04187023185372209
sba(ineural_net
Weight
p1662
(dp1663
g3
F0.003697482573891681
sba(ineural_net
Weight
p1664
(dp1665
g3
F1.1730395136671007e-05
sba(ineural_net
Weight
p1666
(dp1667
g3
F-0.029159640454122487
sba(ineural_net
Weight
p1668
(dp1669
g3
F-0.007852555164050725
sba(ineural_net
Weight
p1670
(dp1671
g3
F0.003455816424004878
sba(ineural_net
Weight
p1672
(dp1673
g3
F-0.16447083790267777
sba(ineural_net
Weight
p1674
(dp1675
g3
F-0.5237050148487851
sba(ineural_net
Weight
p1676
(dp1677
g3
F-1.1052178562482216
sba(ineural_net
Weight
p1678
(dp1679
g3
F-1.3018243470917028
sba(ineural_net
Weight
p1680
(dp1681
g3
F-0.5720638690717503
sba(ineural_net
Weight
p1682
(dp1683
g3
F0.04367107302572592
sba(ineural_net
Weight
p1684
(dp1685
g3
F0.18807738297455961
sba(ineural_net
Weight
p1686
(dp1687
g3
F0.1528990580227235
sba(ineural_net
Weight
p1688
(dp1689
g3
F0.03221938085061738
sba(ineural_net
Weight
p1690
(dp1691
g3
F-0.004090228896065904
sba(ineural_net
Weight
p1692
(dp1693
g3
F-0.0024794527558169395
sba(ineural_net
Weight
p1694
(dp1695
g3
F-0.059427336955209166
sba(ineural_net
Weight
p1696
(dp1697
g3
F-0.1012243627873923
sba(ineural_net
Weight
p1698
(dp1699
g3
F-0.14285623117076557
sba(ineural_net
Weight
p1700
(dp1701
g3
F-0.2748357706977021
sba(ineural_net
Weight
p1702
(dp1703
g3
F-0.4099195873704041
sba(ineural_net
Weight
p1704
(dp1705
g3
F-0.978241045591068
sba(ineural_net
Weight
p1706
(dp1707
g3
F-1.1281939040405657
sba(ineural_net
Weight
p1708
(dp1709
g3
F-0.3609437508762128
sba(ineural_net
Weight
p1710
(dp1711
g3
F-0.11035321033994722
sba(ineural_net
Weight
p1712
(dp1713
g3
F-0.14925436494443992
sba(ineural_net
Weight
p1714
(dp1715
g3
F-0.035257384558370165
sba(ineural_net
Weight
p1716
(dp1717
g3
F-0.040857877595210784
sba(ineural_net
Weight
p1718
(dp1719
g3
F-0.013570136867483353
sba(ineural_net
Weight
p1720
(dp1721
g3
F-0.021010653723355827
sba(ineural_net
Weight
p1722
(dp1723
g3
F-0.08415648903752916
sba(ineural_net
Weight
p1724
(dp1725
g3
F-0.13373286328340955
sba(ineural_net
Weight
p1726
(dp1727
g3
F-0.1288527778682269
sba(ineural_net
Weight
p1728
(dp1729
g3
F0.14877170079732044
sba(ineural_net
Weight
p1730
(dp1731
g3
F0.33014845965127637
sba(ineural_net
Weight
p1732
(dp1733
g3
F-0.3631903447244946
sba(ineural_net
Weight
p1734
(dp1735
g3
F-0.3735630924681969
sba(ineural_net
Weight
p1736
(dp1737
g3
F0.20943479475897828
sba(ineural_net
Weight
p1738
(dp1739
g3
F-0.1797611774471462
sba(ineural_net
Weight
p1740
(dp1741
g3
F-0.3387896322282967
sba(ineural_net
Weight
p1742
(dp1743
g3
F-0.11655471382376335
sba(ineural_net
Weight
p1744
(dp1745
g3
F-0.04744051521265655
sba(ineural_net
Weight
p1746
(dp1747
g3
F-0.007275846553093386
sba(ineural_net
Weight
p1748
(dp1749
g3
F-0.009200205135417125
sba(ineural_net
Weight
p1750
(dp1751
g3
F-0.04531067540884379
sba(ineural_net
Weight
p1752
(dp1753
g3
F0.08759124954714183
sba(ineural_net
Weight
p1754
(dp1755
g3
F0.31833407626126414
sba(ineural_net
Weight
p1756
(dp1757
g3
F0.765147679951294
sba(ineural_net
Weight
p1758
(dp1759
g3
F0.6652898031732161
sba(ineural_net
Weight
p1760
(dp1761
g3
F-0.3061993578160581
sba(ineural_net
Weight
p1762
(dp1763
g3
F-0.1338276543445308
sba(ineural_net
Weight
p1764
(dp1765
g3
F0.2992923185575662
sba(ineural_net
Weight
p1766
(dp1767
g3
F-0.09191795792139745
sba(ineural_net
Weight
p1768
(dp1769
g3
F-0.19358919305637626
sba(ineural_net
Weight
p1770
(dp1771
g3
F-0.11678035974328166
sba(ineural_net
Weight
p1772
(dp1773
g3
F-0.06028117864507902
sba(ineural_net
Weight
p1774
(dp1775
g3
F0.008368108178385857
sba(ineural_net
Weight
p1776
(dp1777
g3
F0.006527134423087217
sba(ineural_net
Weight
p1778
(dp1779
g3
F-0.01541689276395082
sba(ineural_net
Weight
p1780
(dp1781
g3
F0.2326816200015425
sba(ineural_net
Weight
p1782
(dp1783
g3
F0.6481342676584002
sba(ineural_net
Weight
p1784
(dp1785
g3
F0.8394274114082619
sba(ineural_net
Weight
p1786
(dp1787
g3
F0.6328671197652237
sba(ineural_net
Weight
p1788
(dp1789
g3
F0.2233168450926339
sba(ineural_net
Weight
p1790
(dp1791
g3
F0.44961539838265946
sba(ineural_net
Weight
p1792
(dp1793
g3
F0.6571502385144221
sba(ineural_net
Weight
p1794
(dp1795
g3
F0.3448235349998109
sba(ineural_net
Weight
p1796
(dp1797
g3
F0.04561906091115795
sba(ineural_net
Weight
p1798
(dp1799
g3
F-0.08936127433382711
sba(ineural_net
Weight
p1800
(dp1801
g3
F-0.06200121983089895
sba(ineural_net
Weight
p1802
(dp1803
g3
F-0.015351756755478188
sba(ineural_net
Weight
p1804
(dp1805
g3
F-0.008043374232909933
sba(ineural_net
Weight
p1806
(dp1807
g3
F-0.06615869940451051
sba(ineural_net
Weight
p1808
(dp1809
g3
F0.023040783278312067
sba(ineural_net
Weight
p1810
(dp1811
g3
F0.2519419577454637
sba(ineural_net
Weight
p1812
(dp1813
g3
F0.093007823017693
sba(ineural_net
Weight
p1814
(dp1815
g3
F0.01275875211839941
sba(ineural_net
Weight
p1816
(dp1817
g3
F0.37615256152655097
sba(ineural_net
Weight
p1818
(dp1819
g3
F0.592183263007358
sba(ineural_net
Weight
p1820
(dp1821
g3
F0.3574089182846777
sba(ineural_net
Weight
p1822
(dp1823
g3
F-0.05312464329093975
sba(ineural_net
Weight
p1824
(dp1825
g3
F-0.23359536670941494
sba(ineural_net
Weight
p1826
(dp1827
g3
F-0.18772891955249932
sba(ineural_net
Weight
p1828
(dp1829
g3
F-0.07089840055383839
sba(ineural_net
Weight
p1830
(dp1831
g3
F0.003992990012433492
sba(ineural_net
Weight
p1832
(dp1833
g3
F-0.0024113163909695165
sba(ineural_net
Weight
p1834
(dp1835
g3
F-0.09416594663765765
sba(ineural_net
Weight
p1836
(dp1837
g3
F-0.2498739965927491
sba(ineural_net
Weight
p1838
(dp1839
g3
F-0.3973488913278049
sba(ineural_net
Weight
p1840
(dp1841
g3
F-0.759248138704009
sba(ineural_net
Weight
p1842
(dp1843
g3
F-0.7822346292036252
sba(ineural_net
Weight
p1844
(dp1845
g3
F-0.3671839730909163
sba(ineural_net
Weight
p1846
(dp1847
g3
F-0.21384496947172307
sba(ineural_net
Weight
p1848
(dp1849
g3
F-0.4192510396502699
sba(ineural_net
Weight
p1850
(dp1851
g3
F-0.5670559765628523
sba(ineural_net
Weight
p1852
(dp1853
g3
F-0.41679626305985856
sba(ineural_net
Weight
p1854
(dp1855
g3
F-0.19317865431467302
sba(ineural_net
Weight
p1856
(dp1857
g3
F-0.049497409050027454
sba(ineural_net
Weight
p1858
(dp1859
g3
F0.0013737302901486435
sba(ineural_net
Weight
p1860
(dp1861
g3
F0.0009831972533005614
sba(ineural_net
Weight
p1862
(dp1863
g3
F-0.05174539061523705
sba(ineural_net
Weight
p1864
(dp1865
g3
F-0.2592686082203254
sba(ineural_net
Weight
p1866
(dp1867
g3
F-0.5518789313852088
sba(ineural_net
Weight
p1868
(dp1869
g3
F-0.7381387572562124
sba(ineural_net
Weight
p1870
(dp1871
g3
F-0.6096310855578231
sba(ineural_net
Weight
p1872
(dp1873
g3
F-0.49433821594333743
sba(ineural_net
Weight
p1874
(dp1875
g3
F-0.3141987952057696
sba(ineural_net
Weight
p1876
(dp1877
g3
F-0.15201505124703613
sba(ineural_net
Weight
p1878
(dp1879
g3
F-0.18934286630490493
sba(ineural_net
Weight
p1880
(dp1881
g3
F-0.14493176341448533
sba(ineural_net
Weight
p1882
(dp1883
g3
F-0.07060075432996837
sba(ineural_net
Weight
p1884
(dp1885
g3
F-0.0065285247215807534
sba(ineural_net
Weight
p1886
(dp1887
g3
F-0.006220711654274588
sba(ineural_net
Weight
p1888
(dp1889
g3
F-0.008402208305399382
sba(ineural_net
Weight
p1890
(dp1891
g3
F-0.015057039858802083
sba(ineural_net
Weight
p1892
(dp1893
g3
F-0.10408732142004239
sba(ineural_net
Weight
p1894
(dp1895
g3
F-0.25299041287459223
sba(ineural_net
Weight
p1896
(dp1897
g3
F-0.3168041108375214
sba(ineural_net
Weight
p1898
(dp1899
g3
F-0.30441126413350633
sba(ineural_net
Weight
p1900
(dp1901
g3
F-0.28303857911872693
sba(ineural_net
Weight
p1902
(dp1903
g3
F-0.0715182111393359
sba(ineural_net
Weight
p1904
(dp1905
g3
F0.06354502517881817
sba(ineural_net
Weight
p1906
(dp1907
g3
F0.015023861088938906
sba(ineural_net
Weight
p1908
(dp1909
g3
F0.022071703131282632
sba(ineural_net
Weight
p1910
(dp1911
g3
F-0.012399787065272309
sba(ineural_net
Weight
p1912
(dp1913
g3
F-0.0120514704887418
sba(ineural_net
Weight
p1914
(dp1915
g3
F-0.008502131313800551
sba(ineural_net
Weight
p1916
(dp1917
g3
F0.005296453924515554
sba(ineural_net
Weight
p1918
(dp1919
g3
F-0.01103191091277762
sba(ineural_net
Weight
p1920
(dp1921
g3
F-0.03194669181390562
sba(ineural_net
Weight
p1922
(dp1923
g3
F-0.09414146214733808
sba(ineural_net
Weight
p1924
(dp1925
g3
F-0.2079414805425393
sba(ineural_net
Weight
p1926
(dp1927
g3
F-0.3391010174735421
sba(ineural_net
Weight
p1928
(dp1929
g3
F-0.33986297360277407
sba(ineural_net
Weight
p1930
(dp1931
g3
F-0.22908365222924648
sba(ineural_net
Weight
p1932
(dp1933
g3
F-0.19272878979179167
sba(ineural_net
Weight
p1934
(dp1935
g3
F-0.0952824579247281
sba(ineural_net
Weight
p1936
(dp1937
g3
F0.0013473659013622146
sba(ineural_net
Weight
p1938
(dp1939
g3
F0.004211111829934906
sba(ineural_net
Weight
p1940
(dp1941
g3
F0.005992658914892746
sba(ineural_net
Weight
p1942
(dp1943
g3
F0.003924902629205813
sba(ineural_net
Weight
p1944
(dp1945
g3
F0.0043063216798812885
sba(ineural_net
Weight
p1946
(dp1947
g3
F0.008097047637923734
sba(ineural_net
Weight
p1948
(dp1949
g3
F-0.0034307561119149886
sba(ineural_net
Weight
p1950
(dp1951
g3
F-0.04984211910769176
sba(ineural_net
Weight
p1952
(dp1953
g3
F-0.09973335801681325
sba(ineural_net
Weight
p1954
(dp1955
g3
F-0.15113775963067924
sba(ineural_net
Weight
p1956
(dp1957
g3
F-0.1818131426239901
sba(ineural_net
Weight
p1958
(dp1959
g3
F-0.1746401890915027
sba(ineural_net
Weight
p1960
(dp1961
g3
F-0.1467641328304133
sba(ineural_net
Weight
p1962
(dp1963
g3
F-0.0781422780942025
sba(ineural_net
Weight
p1964
(dp1965
g3
F-0.015067136718764572
sba(ineural_net
Weight
p1966
(dp1967
g3
F-0.012279014269679896
sba(ineural_net
Weight
p1968
(dp1969
g3
F-0.005415646383776398
sba(ineural_net
Weight
p1970
(dp1971
g3
F-0.005155394274549124
sba(ineural_net
Weight
p1972
(dp1973
g3
F0.009987672261787652
sba(ineural_net
Weight
p1974
(dp1975
g3
F0.0056394323173661835
sba(ineural_net
Weight
p1976
(dp1977
g3
F0.003958160206979467
sba(ineural_net
Weight
p1978
(dp1979
g3
F0.006923971308509637
sba(ineural_net
Weight
p1980
(dp1981
g3
F-0.005033116356411883
sba(ineural_net
Weight
p1982
(dp1983
g3
F-0.0007460696158332104
sba(ineural_net
Weight
p1984
(dp1985
g3
F-0.012467397135945843
sba(ineural_net
Weight
p1986
(dp1987
g3
F-0.012932527917497294
sba(ineural_net
Weight
p1988
(dp1989
g3
F-0.03063567475113628
sba(ineural_net
Weight
p1990
(dp1991
g3
F-0.028700587689309952
sba(ineural_net
Weight
p1992
(dp1993
g3
F-0.008533206446945068
sba(ineural_net
Weight
p1994
(dp1995
g3
F0.0035340495104254134
sba(ineural_net
Weight
p1996
(dp1997
g3
F0.0018583204967730423
sba(ineural_net
Weight
p1998
(dp1999
g3
F0.008347363833188057
sba(ineural_net
Weight
p2000
(dp2001
g3
F-0.0012130528455042457
sba(ineural_net
Weight
p2002
(dp2003
g3
F-0.004765548008462473
sba(ineural_net
Weight
p2004
(dp2005
g3
F-0.004073226353991354
sba(ineural_net
Weight
p2006
(dp2007
g3
F-0.016393862605020668
sba(ineural_net
Weight
p2008
(dp2009
g3
F-0.05730887105179894
sba(ineural_net
Weight
p2010
(dp2011
g3
F-0.0898441058769339
sba(ineural_net
Weight
p2012
(dp2013
g3
F-0.12934108118656473
sba(ineural_net
Weight
p2014
(dp2015
g3
F-0.22163805672639275
sba(ineural_net
Weight
p2016
(dp2017
g3
F-0.21771742400906768
sba(ineural_net
Weight
p2018
(dp2019
g3
F-0.13110546648423538
sba(ineural_net
Weight
p2020
(dp2021
g3
F-0.04998337685129073
sba(ineural_net
Weight
p2022
(dp2023
g3
F0.06174268077645692
sba(ineural_net
Weight
p2024
(dp2025
g3
F0.1031445485554172
sba(ineural_net
Weight
p2026
(dp2027
g3
F0.045025135106530015
sba(ineural_net
Weight
p2028
(dp2029
g3
F0.006396677897649945
sba(ineural_net
Weight
p2030
(dp2031
g3
F-0.007285449591910809
sba(ineural_net
Weight
p2032
(dp2033
g3
F-0.015400680945097871
sba(ineural_net
Weight
p2034
(dp2035
g3
F-0.05945794370295317
sba(ineural_net
Weight
p2036
(dp2037
g3
F-0.16001800555666287
sba(ineural_net
Weight
p2038
(dp2039
g3
F-0.1544365399186833
sba(ineural_net
Weight
p2040
(dp2041
g3
F-0.145872641238848
sba(ineural_net
Weight
p2042
(dp2043
g3
F-0.30278747183137794
sba(ineural_net
Weight
p2044
(dp2045
g3
F-0.354338327146691
sba(ineural_net
Weight
p2046
(dp2047
g3
F-0.1425133340128403
sba(ineural_net
Weight
p2048
(dp2049
g3
F0.1450375114420958
sba(ineural_net
Weight
p2050
(dp2051
g3
F0.5015563594863935
sba(ineural_net
Weight
p2052
(dp2053
g3
F0.6122722021282072
sba(ineural_net
Weight
p2054
(dp2055
g3
F0.2685903762194542
sba(ineural_net
Weight
p2056
(dp2057
g3
F0.029131473409221252
sba(ineural_net
Weight
p2058
(dp2059
g3
F-0.006694894148704774
sba(ineural_net
Weight
p2060
(dp2061
g3
F-0.04930557906707577
sba(ineural_net
Weight
p2062
(dp2063
g3
F-0.1321700904055119
sba(ineural_net
Weight
p2064
(dp2065
g3
F-0.12184968596404323
sba(ineural_net
Weight
p2066
(dp2067
g3
F0.06368277475070853
sba(ineural_net
Weight
p2068
(dp2069
g3
F0.06603745761798151
sba(ineural_net
Weight
p2070
(dp2071
g3
F-0.17520175151823
sba(ineural_net
Weight
p2072
(dp2073
g3
F-0.20101900948069631
sba(ineural_net
Weight
p2074
(dp2075
g3
F0.042485493568373264
sba(ineural_net
Weight
p2076
(dp2077
g3
F0.2451335428668369
sba(ineural_net
Weight
p2078
(dp2079
g3
F0.6237399948657759
sba(ineural_net
Weight
p2080
(dp2081
g3
F0.9270015988694323
sba(ineural_net
Weight
p2082
(dp2083
g3
F0.5327804821126523
sba(ineural_net
Weight
p2084
(dp2085
g3
F0.06358100886285215
sba(ineural_net
Weight
p2086
(dp2087
g3
F-0.01167697840101516
sba(ineural_net
Weight
p2088
(dp2089
g3
F-0.03693448391093044
sba(ineural_net
Weight
p2090
(dp2091
g3
F-0.11602773089755633
sba(ineural_net
Weight
p2092
(dp2093
g3
F0.08530667319522892
sba(ineural_net
Weight
p2094
(dp2095
g3
F0.3414472474414224
sba(ineural_net
Weight
p2096
(dp2097
g3
F0.3427207279726276
sba(ineural_net
Weight
p2098
(dp2099
g3
F-0.0197473354055122
sba(ineural_net
Weight
p2100
(dp2101
g3
F-0.3511253189048268
sba(ineural_net
Weight
p2102
(dp2103
g3
F-0.45972726634987565
sba(ineural_net
Weight
p2104
(dp2105
g3
F-0.5006993755989216
sba(ineural_net
Weight
p2106
(dp2107
g3
F-0.27455289477664735
sba(ineural_net
Weight
p2108
(dp2109
g3
F0.22120711876795965
sba(ineural_net
Weight
p2110
(dp2111
g3
F0.32378965619726346
sba(ineural_net
Weight
p2112
(dp2113
g3
F0.03391551966433364
sba(ineural_net
Weight
p2114
(dp2115
g3
F-0.008511456995056389
sba(ineural_net
Weight
p2116
(dp2117
g3
F-0.01767817751292873
sba(ineural_net
Weight
p2118
(dp2119
g3
F-0.030826025169535008
sba(ineural_net
Weight
p2120
(dp2121
g3
F0.1917620264281135
sba(ineural_net
Weight
p2122
(dp2123
g3
F0.5616984958090414
sba(ineural_net
Weight
p2124
(dp2125
g3
F0.8022314159343806
sba(ineural_net
Weight
p2126
(dp2127
g3
F0.32628418616620675
sba(ineural_net
Weight
p2128
(dp2129
g3
F-0.49683369859794796
sba(ineural_net
Weight
p2130
(dp2131
g3
F-0.8539536343319623
sba(ineural_net
Weight
p2132
(dp2133
g3
F-0.9776252134907759
sba(ineural_net
Weight
p2134
(dp2135
g3
F-0.9943875253479153
sba(ineural_net
Weight
p2136
(dp2137
g3
F-0.5637827065953785
sba(ineural_net
Weight
p2138
(dp2139
g3
F-0.05513247014663812
sba(ineural_net
Weight
p2140
(dp2141
g3
F0.002458291130347922
sba(ineural_net
Weight
p2142
(dp2143
g3
F-0.012315393375211096
sba(ineural_net
Weight
p2144
(dp2145
g3
F-0.01496260438733317
sba(ineural_net
Weight
p2146
(dp2147
g3
F-0.11590439978349973
sba(ineural_net
Weight
p2148
(dp2149
g3
F-0.05471122312695696
sba(ineural_net
Weight
p2150
(dp2151
g3
F0.47369467843622826
sba(ineural_net
Weight
p2152
(dp2153
g3
F0.9185125372107326
sba(ineural_net
Weight
p2154
(dp2155
g3
F0.3133195966082578
sba(ineural_net
Weight
p2156
(dp2157
g3
F-0.5075228810608151
sba(ineural_net
Weight
p2158
(dp2159
g3
F-0.5066214400124925
sba(ineural_net
Weight
p2160
(dp2161
g3
F-0.48477762584155015
sba(ineural_net
Weight
p2162
(dp2163
g3
F-0.7747651186147777
sba(ineural_net
Weight
p2164
(dp2165
g3
F-0.6145706559293312
sba(ineural_net
Weight
p2166
(dp2167
g3
F-0.13656510225248844
sba(ineural_net
Weight
p2168
(dp2169
g3
F0.0020630040527576323
sba(ineural_net
Weight
p2170
(dp2171
g3
F0.004902903635560985
sba(ineural_net
Weight
p2172
(dp2173
g3
F-0.034558680385631556
sba(ineural_net
Weight
p2174
(dp2175
g3
F-0.3496862096108534
sba(ineural_net
Weight
p2176
(dp2177
g3
F-0.5829766438618389
sba(ineural_net
Weight
p2178
(dp2179
g3
F-0.16589970658216524
sba(ineural_net
Weight
p2180
(dp2181
g3
F0.17041044345439818
sba(ineural_net
Weight
p2182
(dp2183
g3
F-0.303552722043896
sba(ineural_net
Weight
p2184
(dp2185
g3
F-0.5973336105757812
sba(ineural_net
Weight
p2186
(dp2187
g3
F-0.21966847659260316
sba(ineural_net
Weight
p2188
(dp2189
g3
F-0.12452018284361376
sba(ineural_net
Weight
p2190
(dp2191
g3
F-0.42781505301446604
sba(ineural_net
Weight
p2192
(dp2193
g3
F-0.40116612219618647
sba(ineural_net
Weight
p2194
(dp2195
g3
F-0.08943525688951724
sba(ineural_net
Weight
p2196
(dp2197
g3
F-0.0067548011878102955
sba(ineural_net
Weight
p2198
(dp2199
g3
F0.004805154950486196
sba(ineural_net
Weight
p2200
(dp2201
g3
F-0.0486978209092504
sba(ineural_net
Weight
p2202
(dp2203
g3
F-0.28009378999755746
sba(ineural_net
Weight
p2204
(dp2205
g3
F-0.6250465914755232
sba(ineural_net
Weight
p2206
(dp2207
g3
F-0.7539504495634042
sba(ineural_net
Weight
p2208
(dp2209
g3
F-0.6798270956881693
sba(ineural_net
Weight
p2210
(dp2211
g3
F-0.683897731019768
sba(ineural_net
Weight
p2212
(dp2213
g3
F-0.4722946176601581
sba(ineural_net
Weight
p2214
(dp2215
g3
F-0.10306627059638308
sba(ineural_net
Weight
p2216
(dp2217
g3
F-0.13944200014816008
sba(ineural_net
Weight
p2218
(dp2219
g3
F-0.23705764608511654
sba(ineural_net
Weight
p2220
(dp2221
g3
F-0.13504638789408738
sba(ineural_net
Weight
p2222
(dp2223
g3
F-0.02199053572453276
sba(ineural_net
Weight
p2224
(dp2225
g3
F-0.011445708092370267
sba(ineural_net
Weight
p2226
(dp2227
g3
F-0.005721371666894119
sba(ineural_net
Weight
p2228
(dp2229
g3
F-0.03590816053828741
sba(ineural_net
Weight
p2230
(dp2231
g3
F0.06842683363285448
sba(ineural_net
Weight
p2232
(dp2233
g3
F0.11878294228128947
sba(ineural_net
Weight
p2234
(dp2235
g3
F-0.1815582313935516
sba(ineural_net
Weight
p2236
(dp2237
g3
F-0.40965768282821424
sba(ineural_net
Weight
p2238
(dp2239
g3
F-0.4467258230911592
sba(ineural_net
Weight
p2240
(dp2241
g3
F-0.31667205741416626
sba(ineural_net
Weight
p2242
(dp2243
g3
F-0.13640246943626488
sba(ineural_net
Weight
p2244
(dp2245
g3
F-0.04298533844592056
sba(ineural_net
Weight
p2246
(dp2247
g3
F0.07168164189166921
sba(ineural_net
Weight
p2248
(dp2249
g3
F0.043340782517909245
sba(ineural_net
Weight
p2250
(dp2251
g3
F-0.008369571061011594
sba(ineural_net
Weight
p2252
(dp2253
g3
F-0.003288693237090985
sba(ineural_net
Weight
p2254
(dp2255
g3
F-0.0032102117436395732
sba(ineural_net
Weight
p2256
(dp2257
g3
F-0.05462799598293606
sba(ineural_net
Weight
p2258
(dp2259
g3
F0.08429523567542846
sba(ineural_net
Weight
p2260
(dp2261
g3
F0.37601887557666674
sba(ineural_net
Weight
p2262
(dp2263
g3
F0.4592849907133648
sba(ineural_net
Weight
p2264
(dp2265
g3
F0.2503625687948721
sba(ineural_net
Weight
p2266
(dp2267
g3
F-0.00481867084254106
sba(ineural_net
Weight
p2268
(dp2269
g3
F-0.11179195511392806
sba(ineural_net
Weight
p2270
(dp2271
g3
F-0.007938419409362485
sba(ineural_net
Weight
p2272
(dp2273
g3
F0.19879145440506976
sba(ineural_net
Weight
p2274
(dp2275
g3
F0.215078323473116
sba(ineural_net
Weight
p2276
(dp2277
g3
F0.07261471543615695
sba(ineural_net
Weight
p2278
(dp2279
g3
F-0.009078752975913462
sba(ineural_net
Weight
p2280
(dp2281
g3
F-0.00508591810294247
sba(ineural_net
Weight
p2282
(dp2283
g3
F-0.0007171291767913995
sba(ineural_net
Weight
p2284
(dp2285
g3
F-0.032038604929744946
sba(ineural_net
Weight
p2286
(dp2287
g3
F-0.05670079468348048
sba(ineural_net
Weight
p2288
(dp2289
g3
F0.02532979120250686
sba(ineural_net
Weight
p2290
(dp2291
g3
F0.18399433994186476
sba(ineural_net
Weight
p2292
(dp2293
g3
F0.16063551280271332
sba(ineural_net
Weight
p2294
(dp2295
g3
F0.12123192637441067
sba(ineural_net
Weight
p2296
(dp2297
g3
F0.04633006705351195
sba(ineural_net
Weight
p2298
(dp2299
g3
F0.06012041299081736
sba(ineural_net
Weight
p2300
(dp2301
g3
F0.1365543293432304
sba(ineural_net
Weight
p2302
(dp2303
g3
F0.07737466874953852
sba(ineural_net
Weight
p2304
(dp2305
g3
F0.0145084570245402
sba(ineural_net
Weight
p2306
(dp2307
g3
F0.00411108798228579
sba(ineural_net
Weight
p2308
(dp2309
g3
F-0.0028239458851004257
sba(ineural_net
Weight
p2310
(dp2311
g3
F0.009146501346261918
sba(ineural_net
Weight
p2312
(dp2313
g3
F-0.0033741280677188176
sba(ineural_net
Weight
p2314
(dp2315
g3
F-0.03125795208888341
sba(ineural_net
Weight
p2316
(dp2317
g3
F-0.048446160611322606
sba(ineural_net
Weight
p2318
(dp2319
g3
F-0.0817759875452587
sba(ineural_net
Weight
p2320
(dp2321
g3
F-0.07679180855243725
sba(ineural_net
Weight
p2322
(dp2323
g3
F-0.00016437941681145127
sba(ineural_net
Weight
p2324
(dp2325
g3
F-0.04601298851060632
sba(ineural_net
Weight
p2326
(dp2327
g3
F-0.07131810656557067
sba(ineural_net
Weight
p2328
(dp2329
g3
F-0.03875959644957037
sba(ineural_net
Weight
p2330
(dp2331
g3
F-0.002563922454708645
sba(ineural_net
Weight
p2332
(dp2333
g3
F-0.003973159365580473
sba(ineural_net
Weight
p2334
(dp2335
g3
F0.00723994733509645
sba(ineural_net
Weight
p2336
(dp2337
g3
F-0.008125026530638835
sba(ineural_net
Weight
p2338
(dp2339
g3
F0.0025193310571841286
sba(ineural_net
Weight
p2340
(dp2341
g3
F-0.0003239113405303357
sba(ineural_net
Weight
p2342
(dp2343
g3
F-0.008512038533839065
sba(ineural_net
Weight
p2344
(dp2345
g3
F-0.014537507004850405
sba(ineural_net
Weight
p2346
(dp2347
g3
F-0.04961624798648161
sba(ineural_net
Weight
p2348
(dp2349
g3
F-0.060837290449176455
sba(ineural_net
Weight
p2350
(dp2351
g3
F-0.060399276229957916
sba(ineural_net
Weight
p2352
(dp2353
g3
F-0.06642858575912214
sba(ineural_net
Weight
p2354
(dp2355
g3
F-0.04434335446794458
sba(ineural_net
Weight
p2356
(dp2357
g3
F-0.027422193176100864
sba(ineural_net
Weight
p2358
(dp2359
g3
F-0.006011466674442429
sba(ineural_net
Weight
p2360
(dp2361
g3
F0.0045632771862048165
sba(ineural_net
Weight
p2362
(dp2363
g3
F0.009437001479231445
sba(ineural_net
Weight
p2364
(dp2365
g3
F-0.008928946009200231
sba(ineural_net
Weight
p2366
(dp2367
g3
F0.0077091215445313
sba(ineural_net
Weight
p2368
(dp2369
g3
F-0.0013931835988170143
sba(ineural_net
Weight
p2370
(dp2371
g3
F0.007514005566718676
sba(ineural_net
Weight
p2372
(dp2373
g3
F-0.0033599433480312737
sba(ineural_net
Weight
p2374
(dp2375
g3
F0.002853005402731136
sba(ineural_net
Weight
p2376
(dp2377
g3
F0.038437112511364925
sba(ineural_net
Weight
p2378
(dp2379
g3
F0.11454358577500931
sba(ineural_net
Weight
p2380
(dp2381
g3
F0.15918885538525723
sba(ineural_net
Weight
p2382
(dp2383
g3
F0.16515984792682828
sba(ineural_net
Weight
p2384
(dp2385
g3
F0.1704061807292757
sba(ineural_net
Weight
p2386
(dp2387
g3
F0.1497452167318205
sba(ineural_net
Weight
p2388
(dp2389
g3
F0.07910921638658576
sba(ineural_net
Weight
p2390
(dp2391
g3
F0.00835353106642815
sba(ineural_net
Weight
p2392
(dp2393
g3
F-0.0037140059788484834
sba(ineural_net
Weight
p2394
(dp2395
g3
F-0.00841310526456566
sba(ineural_net
Weight
p2396
(dp2397
g3
F0.008808911091405094
sba(ineural_net
Weight
p2398
(dp2399
g3
F0.0031267627559552298
sba(ineural_net
Weight
p2400
(dp2401
g3
F-0.006724512406007822
sba(ineural_net
Weight
p2402
(dp2403
g3
F-0.028814298405023323
sba(ineural_net
Weight
p2404
(dp2405
g3
F0.018168869991238044
sba(ineural_net
Weight
p2406
(dp2407
g3
F0.032514770541256934
sba(ineural_net
Weight
p2408
(dp2409
g3
F0.06374693520261228
sba(ineural_net
Weight
p2410
(dp2411
g3
F0.2104996121147507
sba(ineural_net
Weight
p2412
(dp2413
g3
F0.48383689731368507
sba(ineural_net
Weight
p2414
(dp2415
g3
F0.5380441383003068
sba(ineural_net
Weight
p2416
(dp2417
g3
F0.27715038394394603
sba(ineural_net
Weight
p2418
(dp2419
g3
F0.05817533751232447
sba(ineural_net
Weight
p2420
(dp2421
g3
F0.011051004374199938
sba(ineural_net
Weight
p2422
(dp2423
g3
F0.003443933859129679
sba(ineural_net
Weight
p2424
(dp2425
g3
F-0.003307905548852573
sba(ineural_net
Weight
p2426
(dp2427
g3
F0.0028777541378476874
sba(ineural_net
Weight
p2428
(dp2429
g3
F-0.07160569863460407
sba(ineural_net
Weight
p2430
(dp2431
g3
F-0.1664599764738741
sba(ineural_net
Weight
p2432
(dp2433
g3
F-0.18505651127599534
sba(ineural_net
Weight
p2434
(dp2435
g3
F-0.3082090603248144
sba(ineural_net
Weight
p2436
(dp2437
g3
F-0.44350357253115996
sba(ineural_net
Weight
p2438
(dp2439
g3
F-0.2438046835754101
sba(ineural_net
Weight
p2440
(dp2441
g3
F0.09039279883113814
sba(ineural_net
Weight
p2442
(dp2443
g3
F0.08553607000360705
sba(ineural_net
Weight
p2444
(dp2445
g3
F-0.09671402065702299
sba(ineural_net
Weight
p2446
(dp2447
g3
F-0.10101903919338678
sba(ineural_net
Weight
p2448
(dp2449
g3
F-0.037807944450003746
sba(ineural_net
Weight
p2450
(dp2451
g3
F-0.013374192836211163
sba(ineural_net
Weight
p2452
(dp2453
g3
F-0.012090763001621322
sba(ineural_net
Weight
p2454
(dp2455
g3
F-0.027008056018642576
sba(ineural_net
Weight
p2456
(dp2457
g3
F-0.144663799372103
sba(ineural_net
Weight
p2458
(dp2459
g3
F-0.2455332925512972
sba(ineural_net
Weight
p2460
(dp2461
g3
F-0.2949705403480311
sba(ineural_net
Weight
p2462
(dp2463
g3
F-0.4396415682296202
sba(ineural_net
Weight
p2464
(dp2465
g3
F-0.528308604533874
sba(ineural_net
Weight
p2466
(dp2467
g3
F-0.6027226987018807
sba(ineural_net
Weight
p2468
(dp2469
g3
F-0.8785802582877885
sba(ineural_net
Weight
p2470
(dp2471
g3
F-1.0275896677518992
sba(ineural_net
Weight
p2472
(dp2473
g3
F-0.7644418132808252
sba(ineural_net
Weight
p2474
(dp2475
g3
F-0.36362170502114227
sba(ineural_net
Weight
p2476
(dp2477
g3
F-0.10470943302493331
sba(ineural_net
Weight
p2478
(dp2479
g3
F-0.006227493385712838
sba(ineural_net
Weight
p2480
(dp2481
g3
F-0.009375088247859941
sba(ineural_net
Weight
p2482
(dp2483
g3
F-0.047539162960698246
sba(ineural_net
Weight
p2484
(dp2485
g3
F-0.18468185872805487
sba(ineural_net
Weight
p2486
(dp2487
g3
F-0.21439286989788645
sba(ineural_net
Weight
p2488
(dp2489
g3
F-0.2330578883505768
sba(ineural_net
Weight
p2490
(dp2491
g3
F-0.18418094252754585
sba(ineural_net
Weight
p2492
(dp2493
g3
F-0.1740462613924955
sba(ineural_net
Weight
p2494
(dp2495
g3
F-0.7320487747868302
sba(ineural_net
Weight
p2496
(dp2497
g3
F-1.3272980391482085
sba(ineural_net
Weight
p2498
(dp2499
g3
F-1.2868417916667647
sba(ineural_net
Weight
p2500
(dp2501
g3
F-0.837800479153355
sba(ineural_net
Weight
p2502
(dp2503
g3
F-0.38604814525703424
sba(ineural_net
Weight
p2504
(dp2505
g3
F-0.10803564779720475
sba(ineural_net
Weight
p2506
(dp2507
g3
F-0.017621801959561274
sba(ineural_net
Weight
p2508
(dp2509
g3
F-0.007855856127046753
sba(ineural_net
Weight
p2510
(dp2511
g3
F-0.03271812409279315
sba(ineural_net
Weight
p2512
(dp2513
g3
F-0.1417750955893165
sba(ineural_net
Weight
p2514
(dp2515
g3
F-0.12244369454468078
sba(ineural_net
Weight
p2516
(dp2517
g3
F-0.13049510520525762
sba(ineural_net
Weight
p2518
(dp2519
g3
F0.27574162850394685
sba(ineural_net
Weight
p2520
(dp2521
g3
F0.04785987900524841
sba(ineural_net
Weight
p2522
(dp2523
g3
F-0.7162954907247167
sba(ineural_net
Weight
p2524
(dp2525
g3
F-0.7076789959232672
sba(ineural_net
Weight
p2526
(dp2527
g3
F-0.558254318699363
sba(ineural_net
Weight
p2528
(dp2529
g3
F-0.2837023580977611
sba(ineural_net
Weight
p2530
(dp2531
g3
F-0.060806106031750164
sba(ineural_net
Weight
p2532
(dp2533
g3
F-0.013527187113400596
sba(ineural_net
Weight
p2534
(dp2535
g3
F0.0017252640540883594
sba(ineural_net
Weight
p2536
(dp2537
g3
F-0.004467907547802833
sba(ineural_net
Weight
p2538
(dp2539
g3
F-0.0388135704878292
sba(ineural_net
Weight
p2540
(dp2541
g3
F-0.12241187005518428
sba(ineural_net
Weight
p2542
(dp2543
g3
F-0.08684573143840058
sba(ineural_net
Weight
p2544
(dp2545
g3
F0.10827326446780092
sba(ineural_net
Weight
p2546
(dp2547
g3
F0.5387384135847362
sba(ineural_net
Weight
p2548
(dp2549
g3
F0.05544033717919506
sba(ineural_net
Weight
p2550
(dp2551
g3
F-0.25402242758025645
sba(ineural_net
Weight
p2552
(dp2553
g3
F0.10911506204932833
sba(ineural_net
Weight
p2554
(dp2555
g3
F0.12169967359535014
sba(ineural_net
Weight
p2556
(dp2557
g3
F0.3874563139011855
sba(ineural_net
Weight
p2558
(dp2559
g3
F0.3315230465108176
sba(ineural_net
Weight
p2560
(dp2561
g3
F0.07445442989255033
sba(ineural_net
Weight
p2562
(dp2563
g3
F-0.012929429520796145
sba(ineural_net
Weight
p2564
(dp2565
g3
F-0.0019536703864786007
sba(ineural_net
Weight
p2566
(dp2567
g3
F-0.06887713287862976
sba(ineural_net
Weight
p2568
(dp2569
g3
F-0.18886716605716106
sba(ineural_net
Weight
p2570
(dp2571
g3
F-0.07311207956735033
sba(ineural_net
Weight
p2572
(dp2573
g3
F0.3362494267865392
sba(ineural_net
Weight
p2574
(dp2575
g3
F0.37975966405102973
sba(ineural_net
Weight
p2576
(dp2577
g3
F-0.18185992436225742
sba(ineural_net
Weight
p2578
(dp2579
g3
F-0.3017819635405239
sba(ineural_net
Weight
p2580
(dp2581
g3
F-0.09327213321624642
sba(ineural_net
Weight
p2582
(dp2583
g3
F0.14294862021283777
sba(ineural_net
Weight
p2584
(dp2585
g3
F0.5195607756360124
sba(ineural_net
Weight
p2586
(dp2587
g3
F0.34927843683993315
sba(ineural_net
Weight
p2588
(dp2589
g3
F0.03262561897158004
sba(ineural_net
Weight
p2590
(dp2591
g3
F-0.027119460815819937
sba(ineural_net
Weight
p2592
(dp2593
g3
F0.007751157612622922
sba(ineural_net
Weight
p2594
(dp2595
g3
F-0.08443436586085457
sba(ineural_net
Weight
p2596
(dp2597
g3
F-0.2705104316864093
sba(ineural_net
Weight
p2598
(dp2599
g3
F-0.07302586164288824
sba(ineural_net
Weight
p2600
(dp2601
g3
F0.611894354800792
sba(ineural_net
Weight
p2602
(dp2603
g3
F0.5338360150932644
sba(ineural_net
Weight
p2604
(dp2605
g3
F-0.3311734887524895
sba(ineural_net
Weight
p2606
(dp2607
g3
F-0.5679797233802705
sba(ineural_net
Weight
p2608
(dp2609
g3
F-0.0921361663556085
sba(ineural_net
Weight
p2610
(dp2611
g3
F0.31323527621650055
sba(ineural_net
Weight
p2612
(dp2613
g3
F0.3111622159393974
sba(ineural_net
Weight
p2614
(dp2615
g3
F0.04968319347408558
sba(ineural_net
Weight
p2616
(dp2617
g3
F-0.08625977536014252
sba(ineural_net
Weight
p2618
(dp2619
g3
F-0.02772625175023052
sba(ineural_net
Weight
p2620
(dp2621
g3
F0.006060068499401364
sba(ineural_net
Weight
p2622
(dp2623
g3
F-0.11443460356578503
sba(ineural_net
Weight
p2624
(dp2625
g3
F-0.383479051738074
sba(ineural_net
Weight
p2626
(dp2627
g3
F-0.27108791966418333
sba(ineural_net
Weight
p2628
(dp2629
g3
F0.6425499497775
sba(ineural_net
Weight
p2630
(dp2631
g3
F1.0883353865199574
sba(ineural_net
Weight
p2632
(dp2633
g3
F0.5423395504608034
sba(ineural_net
Weight
p2634
(dp2635
g3
F0.33260901298539297
sba(ineural_net
Weight
p2636
(dp2637
g3
F0.5031467943418892
sba(ineural_net
Weight
p2638
(dp2639
g3
F0.26919130470373576
sba(ineural_net
Weight
p2640
(dp2641
g3
F-0.10490483457105357
sba(ineural_net
Weight
p2642
(dp2643
g3
F-0.21841853046996754
sba(ineural_net
Weight
p2644
(dp2645
g3
F-0.1143769099443234
sba(ineural_net
Weight
p2646
(dp2647
g3
F-0.00598244243159704
sba(ineural_net
Weight
p2648
(dp2649
g3
F-0.0023071092056084915
sba(ineural_net
Weight
p2650
(dp2651
g3
F-0.06617992791325229
sba(ineural_net
Weight
p2652
(dp2653
g3
F-0.31640857456886806
sba(ineural_net
Weight
p2654
(dp2655
g3
F-0.5409431261518032
sba(ineural_net
Weight
p2656
(dp2657
g3
F-0.27950221776949774
sba(ineural_net
Weight
p2658
(dp2659
g3
F0.2278193420180471
sba(ineural_net
Weight
p2660
(dp2661
g3
F0.33007443492021965
sba(ineural_net
Weight
p2662
(dp2663
g3
F0.1770405300316536
sba(ineural_net
Weight
p2664
(dp2665
g3
F-0.034692878452424004
sba(ineural_net
Weight
p2666
(dp2667
g3
F-0.28186994939382864
sba(ineural_net
Weight
p2668
(dp2669
g3
F-0.31249200398867794
sba(ineural_net
Weight
p2670
(dp2671
g3
F-0.19603049023114724
sba(ineural_net
Weight
p2672
(dp2673
g3
F-0.06359308248178411
sba(ineural_net
Weight
p2674
(dp2675
g3
F-0.003253164370605735
sba(ineural_net
Weight
p2676
(dp2677
g3
F-0.004505288801264647
sba(ineural_net
Weight
p2678
(dp2679
g3
F-0.016945452330143995
sba(ineural_net
Weight
p2680
(dp2681
g3
F-0.10268317497896931
sba(ineural_net
Weight
p2682
(dp2683
g3
F-0.35092635036636594
sba(ineural_net
Weight
p2684
(dp2685
g3
F-0.5882105981761516
sba(ineural_net
Weight
p2686
(dp2687
g3
F-0.6337513951112506
sba(ineural_net
Weight
p2688
(dp2689
g3
F-0.5878330047515256
sba(ineural_net
Weight
p2690
(dp2691
g3
F-0.637817115551629
sba(ineural_net
Weight
p2692
(dp2693
g3
F-0.5641583887885947
sba(ineural_net
Weight
p2694
(dp2695
g3
F-0.35007228629869713
sba(ineural_net
Weight
p2696
(dp2697
g3
F-0.16267077068469002
sba(ineural_net
Weight
p2698
(dp2699
g3
F-0.05750694163796411
sba(ineural_net
Weight
p2700
(dp2701
g3
F-0.017733309205644556
sba(ineural_net
Weight
p2702
(dp2703
g3
F0.005735074466164907
sba(ineural_net
Weight
p2704
(dp2705
g3
F-0.007929021350736705
sba(ineural_net
Weight
p2706
(dp2707
g3
F-0.007791275939534991
sba(ineural_net
Weight
p2708
(dp2709
g3
F-0.004002751125089884
sba(ineural_net
Weight
p2710
(dp2711
g3
F-0.05141102167000523
sba(ineural_net
Weight
p2712
(dp2713
g3
F-0.13627431149308916
sba(ineural_net
Weight
p2714
(dp2715
g3
F-0.2506950133393597
sba(ineural_net
Weight
p2716
(dp2717
g3
F-0.2813142784471127
sba(ineural_net
Weight
p2718
(dp2719
g3
F-0.2710982088974346
sba(ineural_net
Weight
p2720
(dp2721
g3
F-0.1817605350155555
sba(ineural_net
Weight
p2722
(dp2723
g3
F-0.08471855692678192
sba(ineural_net
Weight
p2724
(dp2725
g3
F-0.03293087896045642
sba(ineural_net
Weight
p2726
(dp2727
g3
F-0.004441981469244524
sba(ineural_net
Weight
p2728
(dp2729
g3
F0.005494758702397877
sba(ineural_net
Weight
p2730
(dp2731
g3
F0.006649333911017267
sba(ineural_net
Weight
p2732
(dp2733
g3
F-0.009155134502994582
sba(ineural_net
Weight
p2734
(dp2735
g3
F-0.0001685914649884053
sba(ineural_net
Weight
p2736
(dp2737
g3
F-0.007266714641098883
sba(ineural_net
Weight
p2738
(dp2739
g3
F-0.002560906763335499
sba(ineural_net
Weight
p2740
(dp2741
g3
F-0.01884587722829417
sba(ineural_net
Weight
p2742
(dp2743
g3
F-0.011060297652801577
sba(ineural_net
Weight
p2744
(dp2745
g3
F-0.014293760071220803
sba(ineural_net
Weight
p2746
(dp2747
g3
F-0.030480391604899085
sba(ineural_net
Weight
p2748
(dp2749
g3
F-0.03358606777448856
sba(ineural_net
Weight
p2750
(dp2751
g3
F-0.024211109076738686
sba(ineural_net
Weight
p2752
(dp2753
g3
F-0.004710357586682445
sba(ineural_net
Weight
p2754
(dp2755
g3
F-0.007830031349858076
sba(ineural_net
Weight
p2756
(dp2757
g3
F-0.0015055473473225695
sba(ineural_net
Weight
p2758
(dp2759
g3
F-0.0016205262417309466
sba(ineural_net
Weight
p2760
(dp2761
g3
F0.005348341156633714
sba(ineural_net
Weight
p2762
(dp2763
g3
F-0.005777373624567208
sba(ineural_net
Weight
p2764
(dp2765
g3
F0.002735846595599159
sba(ineural_net
Weight
p2766
(dp2767
g3
F0.0056726058590341934
sba(ineural_net
Weight
p2768
(dp2769
g3
F0.006003191175500528
sba(ineural_net
Weight
p2770
(dp2771
g3
F-0.01286395380576645
sba(ineural_net
Weight
p2772
(dp2773
g3
F-0.00043544121448988495
sba(ineural_net
Weight
p2774
(dp2775
g3
F-0.0015770042689334043
sba(ineural_net
Weight
p2776
(dp2777
g3
F-0.01616915951762188
sba(ineural_net
Weight
p2778
(dp2779
g3
F-0.01343966534276421
sba(ineural_net
Weight
p2780
(dp2781
g3
F0.00035715665013460476
sba(ineural_net
Weight
p2782
(dp2783
g3
F-0.007523918488251837
sba(ineural_net
Weight
p2784
(dp2785
g3
F-0.005057709731032425
sba(ineural_net
Weight
p2786
(dp2787
g3
F-0.007490385409692593
sba(ineural_net
Weight
p2788
(dp2789
g3
F-0.00790794658213843
sba(ineural_net
Weight
p2790
(dp2791
g3
F0.0035478553605870944
sba(ineural_net
Weight
p2792
(dp2793
g3
F0.0036737312116197816
sba(ineural_net
Weight
p2794
(dp2795
g3
F-0.001557624676739484
sba(ineural_net
Weight
p2796
(dp2797
g3
F-0.009311695663438091
sba(ineural_net
Weight
p2798
(dp2799
g3
F-0.05431947191553099
sba(ineural_net
Weight
p2800
(dp2801
g3
F-0.11561437774123658
sba(ineural_net
Weight
p2802
(dp2803
g3
F-0.18001343662506242
sba(ineural_net
Weight
p2804
(dp2805
g3
F-0.19968169518589313
sba(ineural_net
Weight
p2806
(dp2807
g3
F-0.1469440248848511
sba(ineural_net
Weight
p2808
(dp2809
g3
F-0.09984831992391195
sba(ineural_net
Weight
p2810
(dp2811
g3
F-0.04520765651262105
sba(ineural_net
Weight
p2812
(dp2813
g3
F-0.01902389389783178
sba(ineural_net
Weight
p2814
(dp2815
g3
F0.006341048849303684
sba(ineural_net
Weight
p2816
(dp2817
g3
F-0.004655331725610938
sba(ineural_net
Weight
p2818
(dp2819
g3
F-0.00817914603129985
sba(ineural_net
Weight
p2820
(dp2821
g3
F0.008474149287702706
sba(ineural_net
Weight
p2822
(dp2823
g3
F-0.0013174654041289882
sba(ineural_net
Weight
p2824
(dp2825
g3
F-0.04761769795823592
sba(ineural_net
Weight
p2826
(dp2827
g3
F-0.1545162638433168
sba(ineural_net
Weight
p2828
(dp2829
g3
F-0.3241552204605599
sba(ineural_net
Weight
p2830
(dp2831
g3
F-0.5951212653754729
sba(ineural_net
Weight
p2832
(dp2833
g3
F-0.7707500483188532
sba(ineural_net
Weight
p2834
(dp2835
g3
F-0.6501608624968207
sba(ineural_net
Weight
p2836
(dp2837
g3
F-0.403342703858827
sba(ineural_net
Weight
p2838
(dp2839
g3
F-0.17899117331057166
sba(ineural_net
Weight
p2840
(dp2841
g3
F-0.09031715114753273
sba(ineural_net
Weight
p2842
(dp2843
g3
F-0.025734176663574963
sba(ineural_net
Weight
p2844
(dp2845
g3
F-0.0018454458575742397
sba(ineural_net
Weight
p2846
(dp2847
g3
F0.01808440707513085
sba(ineural_net
Weight
p2848
(dp2849
g3
F0.04493855333126702
sba(ineural_net
Weight
p2850
(dp2851
g3
F0.17063384666786788
sba(ineural_net
Weight
p2852
(dp2853
g3
F0.2847544731811196
sba(ineural_net
Weight
p2854
(dp2855
g3
F0.24736582187740289
sba(ineural_net
Weight
p2856
(dp2857
g3
F0.09819936534730288
sba(ineural_net
Weight
p2858
(dp2859
g3
F-0.1710963708088318
sba(ineural_net
Weight
p2860
(dp2861
g3
F-0.3730429410272886
sba(ineural_net
Weight
p2862
(dp2863
g3
F-0.2269992524211716
sba(ineural_net
Weight
p2864
(dp2865
g3
F-0.01939510334815782
sba(ineural_net
Weight
p2866
(dp2867
g3
F-0.008495927953094692
sba(ineural_net
Weight
p2868
(dp2869
g3
F-0.07451008373466377
sba(ineural_net
Weight
p2870
(dp2871
g3
F-0.06417665036441478
sba(ineural_net
Weight
p2872
(dp2873
g3
F-0.012841374312684862
sba(ineural_net
Weight
p2874
(dp2875
g3
F0.02554449096409553
sba(ineural_net
Weight
p2876
(dp2877
g3
F0.12693070043303092
sba(ineural_net
Weight
p2878
(dp2879
g3
F0.35406097851875706
sba(ineural_net
Weight
p2880
(dp2881
g3
F0.5396112157426072
sba(ineural_net
Weight
p2882
(dp2883
g3
F0.5590100091403848
sba(ineural_net
Weight
p2884
(dp2885
g3
F0.600917677899337
sba(ineural_net
Weight
p2886
(dp2887
g3
F0.54508676538102
sba(ineural_net
Weight
p2888
(dp2889
g3
F0.5400824472202124
sba(ineural_net
Weight
p2890
(dp2891
g3
F0.7022644218901094
sba(ineural_net
Weight
p2892
(dp2893
g3
F0.6033289820103453
sba(ineural_net
Weight
p2894
(dp2895
g3
F0.2470263752685746
sba(ineural_net
Weight
p2896
(dp2897
g3
F-0.011478794475806808
sba(ineural_net
Weight
p2898
(dp2899
g3
F-0.05184619037095174
sba(ineural_net
Weight
p2900
(dp2901
g3
F-0.014820015182272725
sba(ineural_net
Weight
p2902
(dp2903
g3
F0.022880770630172846
sba(ineural_net
Weight
p2904
(dp2905
g3
F0.13866668802491228
sba(ineural_net
Weight
p2906
(dp2907
g3
F0.22566687525839957
sba(ineural_net
Weight
p2908
(dp2909
g3
F0.11121068798943087
sba(ineural_net
Weight
p2910
(dp2911
g3
F0.04929807807508007
sba(ineural_net
Weight
p2912
(dp2913
g3
F0.08851615211206021
sba(ineural_net
Weight
p2914
(dp2915
g3
F-0.18300691310009315
sba(ineural_net
Weight
p2916
(dp2917
g3
F0.03149268482292114
sba(ineural_net
Weight
p2918
(dp2919
g3
F0.5625414352443214
sba(ineural_net
Weight
p2920
(dp2921
g3
F0.4806801323084752
sba(ineural_net
Weight
p2922
(dp2923
g3
F0.12448630072347514
sba(ineural_net
Weight
p2924
(dp2925
g3
F-0.06595093508067695
sba(ineural_net
Weight
p2926
(dp2927
g3
F-0.03131421540014861
sba(ineural_net
Weight
p2928
(dp2929
g3
F-0.010704746969640919
sba(ineural_net
Weight
p2930
(dp2931
g3
F0.03458799024521449
sba(ineural_net
Weight
p2932
(dp2933
g3
F0.07325573191852518
sba(ineural_net
Weight
p2934
(dp2935
g3
F-0.032662038987113666
sba(ineural_net
Weight
p2936
(dp2937
g3
F-0.3588261764262775
sba(ineural_net
Weight
p2938
(dp2939
g3
F-0.6787207443815512
sba(ineural_net
Weight
p2940
(dp2941
g3
F-0.8840331385278942
sba(ineural_net
Weight
p2942
(dp2943
g3
F-1.2994524659810893
sba(ineural_net
Weight
p2944
(dp2945
g3
F-0.6732008985881236
sba(ineural_net
Weight
p2946
(dp2947
g3
F0.2617938928882043
sba(ineural_net
Weight
p2948
(dp2949
g3
F0.20647860816232655
sba(ineural_net
Weight
p2950
(dp2951
g3
F-0.038527320523894355
sba(ineural_net
Weight
p2952
(dp2953
g3
F-0.13740085701593616
sba(ineural_net
Weight
p2954
(dp2955
g3
F-0.04817170173882775
sba(ineural_net
Weight
p2956
(dp2957
g3
F0.005212310893676826
sba(ineural_net
Weight
p2958
(dp2959
g3
F0.00016451841582786934
sba(ineural_net
Weight
p2960
(dp2961
g3
F0.007818825411785683
sba(ineural_net
Weight
p2962
(dp2963
g3
F-0.14062034623530006
sba(ineural_net
Weight
p2964
(dp2965
g3
F-0.5206418877200845
sba(ineural_net
Weight
p2966
(dp2967
g3
F-0.9114533275080235
sba(ineural_net
Weight
p2968
(dp2969
g3
F-1.1162260084405835
sba(ineural_net
Weight
p2970
(dp2971
g3
F-1.1242993615086365
sba(ineural_net
Weight
p2972
(dp2973
g3
F-0.3395039233769157
sba(ineural_net
Weight
p2974
(dp2975
g3
F0.2740703989227278
sba(ineural_net
Weight
p2976
(dp2977
g3
F0.04696047315561395
sba(ineural_net
Weight
p2978
(dp2979
g3
F-0.08258712328777844
sba(ineural_net
Weight
p2980
(dp2981
g3
F-0.12466466273547944
sba(ineural_net
Weight
p2982
(dp2983
g3
F-0.045622024131724066
sba(ineural_net
Weight
p2984
(dp2985
g3
F-0.008087801814839972
sba(ineural_net
Weight
p2986
(dp2987
g3
F-0.005418971315099453
sba(ineural_net
Weight
p2988
(dp2989
g3
F-0.024235424621214415
sba(ineural_net
Weight
p2990
(dp2991
g3
F-0.20532166957974873
sba(ineural_net
Weight
p2992
(dp2993
g3
F-0.45211995069782623
sba(ineural_net
Weight
p2994
(dp2995
g3
F-0.6511075196253147
sba(ineural_net
Weight
p2996
(dp2997
g3
F-0.6334990624210551
sba(ineural_net
Weight
p2998
(dp2999
g3
F-0.23878347342356973
sba(ineural_net
Weight
p3000
(dp3001
g3
F0.1511276005719684
sba(ineural_net
Weight
p3002
(dp3003
g3
F0.05639220794322049
sba(ineural_net
Weight
p3004
(dp3005
g3
F-0.20489659955472825
sba(ineural_net
Weight
p3006
(dp3007
g3
F-0.2398159966831651
sba(ineural_net
Weight
p3008
(dp3009
g3
F-0.14867089566783956
sba(ineural_net
Weight
p3010
(dp3011
g3
F-0.03875684163921601
sba(ineural_net
Weight
p3012
(dp3013
g3
F-0.00709327790714218
sba(ineural_net
Weight
p3014
(dp3015
g3
F-0.000876596239157072
sba(ineural_net
Weight
p3016
(dp3017
g3
F-0.04603191034369382
sba(ineural_net
Weight
p3018
(dp3019
g3
F-0.23141824654234763
sba(ineural_net
Weight
p3020
(dp3021
g3
F-0.4715665066745467
sba(ineural_net
Weight
p3022
(dp3023
g3
F-0.5443808643756529
sba(ineural_net
Weight
p3024
(dp3025
g3
F-0.27495150184661654
sba(ineural_net
Weight
p3026
(dp3027
g3
F0.07717702944261569
sba(ineural_net
Weight
p3028
(dp3029
g3
F-0.03227178200353585
sba(ineural_net
Weight
p3030
(dp3031
g3
F-0.37246255512821597
sba(ineural_net
Weight
p3032
(dp3033
g3
F-0.5086969667714347
sba(ineural_net
Weight
p3034
(dp3035
g3
F-0.36776837177357297
sba(ineural_net
Weight
p3036
(dp3037
g3
F-0.1585144456378936
sba(ineural_net
Weight
p3038
(dp3039
g3
F-0.03433615492337876
sba(ineural_net
Weight
p3040
(dp3041
g3
F-0.006784425452179902
sba(ineural_net
Weight
p3042
(dp3043
g3
F0.0005612149859246686
sba(ineural_net
Weight
p3044
(dp3045
g3
F-0.04418626328786126
sba(ineural_net
Weight
p3046
(dp3047
g3
F-0.20094515700261728
sba(ineural_net
Weight
p3048
(dp3049
g3
F-0.4293839591134522
sba(ineural_net
Weight
p3050
(dp3051
g3
F-0.4007756331609361
sba(ineural_net
Weight
p3052
(dp3053
g3
F-0.19220684225850337
sba(ineural_net
Weight
p3054
(dp3055
g3
F-0.1633213055410698
sba(ineural_net
Weight
p3056
(dp3057
g3
F-0.34345475906216594
sba(ineural_net
Weight
p3058
(dp3059
g3
F-0.5306419100118379
sba(ineural_net
Weight
p3060
(dp3061
g3
F-0.4877015276909952
sba(ineural_net
Weight
p3062
(dp3063
g3
F-0.279998782530389
sba(ineural_net
Weight
p3064
(dp3065
g3
F-0.09302389326448396
sba(ineural_net
Weight
p3066
(dp3067
g3
F-0.004923706136564882
sba(ineural_net
Weight
p3068
(dp3069
g3
F0.009065192325916939
sba(ineural_net
Weight
p3070
(dp3071
g3
F-0.007077050690516997
sba(ineural_net
Weight
p3072
(dp3073
g3
F-0.021981946790207256
sba(ineural_net
Weight
p3074
(dp3075
g3
F-0.0228841073617618
sba(ineural_net
Weight
p3076
(dp3077
g3
F0.010883100524918655
sba(ineural_net
Weight
p3078
(dp3079
g3
F0.1408538704660288
sba(ineural_net
Weight
p3080
(dp3081
g3
F0.06269675058218596
sba(ineural_net
Weight
p3082
(dp3083
g3
F-0.03886039853246672
sba(ineural_net
Weight
p3084
(dp3085
g3
F-0.07210001794293715
sba(ineural_net
Weight
p3086
(dp3087
g3
F-0.2049962563983082
sba(ineural_net
Weight
p3088
(dp3089
g3
F-0.21188034538192851
sba(ineural_net
Weight
p3090
(dp3091
g3
F-0.08995876418894917
sba(ineural_net
Weight
p3092
(dp3093
g3
F-0.024535806576477363
sba(ineural_net
Weight
p3094
(dp3095
g3
F-0.003427308144076236
sba(ineural_net
Weight
p3096
(dp3097
g3
F0.006442160971156102
sba(ineural_net
Weight
p3098
(dp3099
g3
F-0.008001426233271677
sba(ineural_net
Weight
p3100
(dp3101
g3
F0.004034895613750799
sba(ineural_net
Weight
p3102
(dp3103
g3
F0.05896182933995121
sba(ineural_net
Weight
p3104
(dp3105
g3
F0.2597404531673888
sba(ineural_net
Weight
p3106
(dp3107
g3
F0.38379735695826056
sba(ineural_net
Weight
p3108
(dp3109
g3
F0.30508446682864016
sba(ineural_net
Weight
p3110
(dp3111
g3
F0.2799059778874497
sba(ineural_net
Weight
p3112
(dp3113
g3
F0.2705042328150365
sba(ineural_net
Weight
p3114
(dp3115
g3
F0.10293671720588209
sba(ineural_net
Weight
p3116
(dp3117
g3
F-0.040697282079432365
sba(ineural_net
Weight
p3118
(dp3119
g3
F-0.018193638138947296
sba(ineural_net
Weight
p3120
(dp3121
g3
F0.008292133657196903
sba(ineural_net
Weight
p3122
(dp3123
g3
F-0.0006607781555355911
sba(ineural_net
Weight
p3124
(dp3125
g3
F0.007188649013279513
sba(ineural_net
Weight
p3126
(dp3127
g3
F0.005102374493236122
sba(ineural_net
Weight
p3128
(dp3129
g3
F-0.00016692053030238857
sba(ineural_net
Weight
p3130
(dp3131
g3
F0.01741603840946593
sba(ineural_net
Weight
p3132
(dp3133
g3
F0.08081779503189404
sba(ineural_net
Weight
p3134
(dp3135
g3
F0.1275900939156229
sba(ineural_net
Weight
p3136
(dp3137
g3
F0.1317483664636194
sba(ineural_net
Weight
p3138
(dp3139
g3
F0.148695840466503
sba(ineural_net
Weight
p3140
(dp3141
g3
F0.15556825449967457
sba(ineural_net
Weight
p3142
(dp3143
g3
F0.06072467030799741
sba(ineural_net
Weight
p3144
(dp3145
g3
F-0.005974570949565559
sba(ineural_net
Weight
p3146
(dp3147
g3
F0.006142593306567617
sba(ineural_net
Weight
p3148
(dp3149
g3
F0.011018898068309437
sba(ineural_net
Weight
p3150
(dp3151
g3
F0.008291614464734578
sba(ineural_net
Weight
p3152
(dp3153
g3
F0.0025698774661369987
sba(ineural_net
Weight
p3154
(dp3155
g3
F-0.0013439104131906694
sba(ineural_net
Weight
p3156
(dp3157
g3
F-0.0051232819882812185
sba(ineural_net
Weight
p3158
(dp3159
g3
F0.0012825480873971972
sba(ineural_net
Weight
p3160
(dp3161
g3
F0.0038255406638467338
sba(ineural_net
Weight
p3162
(dp3163
g3
F0.006138321613880239
sba(ineural_net
Weight
p3164
(dp3165
g3
F-0.0059257147260032015
sba(ineural_net
Weight
p3166
(dp3167
g3
F-0.0023540740628534007
sba(ineural_net
Weight
p3168
(dp3169
g3
F-0.024732679113246035
sba(ineural_net
Weight
p3170
(dp3171
g3
F-0.04589828325786133
sba(ineural_net
Weight
p3172
(dp3173
g3
F-0.03205524328717798
sba(ineural_net
Weight
p3174
(dp3175
g3
F-0.017406425909367428
sba(ineural_net
Weight
p3176
(dp3177
g3
F-0.013872186500877196
sba(ineural_net
Weight
p3178
(dp3179
g3
F-0.005825622309603766
sba(ineural_net
Weight
p3180
(dp3181
g3
F-0.0072536936990656425
sba(ineural_net
Weight
p3182
(dp3183
g3
F-0.006275310578133615
sba(ineural_net
Weight
p3184
(dp3185
g3
F-0.0026441354883538037
sba(ineural_net
Weight
p3186
(dp3187
g3
F-0.007723489607311665
sba(ineural_net
Weight
p3188
(dp3189
g3
F-0.008791905493960825
sba(ineural_net
Weight
p3190
(dp3191
g3
F-0.02332382582249037
sba(ineural_net
Weight
p3192
(dp3193
g3
F-0.07158147931830927
sba(ineural_net
Weight
p3194
(dp3195
g3
F-0.18226669114695807
sba(ineural_net
Weight
p3196
(dp3197
g3
F-0.24962701425518452
sba(ineural_net
Weight
p3198
(dp3199
g3
F-0.30927287151701294
sba(ineural_net
Weight
p3200
(dp3201
g3
F-0.3408480116687016
sba(ineural_net
Weight
p3202
(dp3203
g3
F-0.26484605102417946
sba(ineural_net
Weight
p3204
(dp3205
g3
F-0.15368546385655382
sba(ineural_net
Weight
p3206
(dp3207
g3
F-0.06049695507605724
sba(ineural_net
Weight
p3208
(dp3209
g3
F-0.005025165993081784
sba(ineural_net
Weight
p3210
(dp3211
g3
F0.003817840632069905
sba(ineural_net
Weight
p3212
(dp3213
g3
F0.0014440744409137429
sba(ineural_net
Weight
p3214
(dp3215
g3
F-0.017187186333130138
sba(ineural_net
Weight
p3216
(dp3217
g3
F-0.03573736807688195
sba(ineural_net
Weight
p3218
(dp3219
g3
F-0.09959479628740277
sba(ineural_net
Weight
p3220
(dp3221
g3
F-0.16628403367077926
sba(ineural_net
Weight
p3222
(dp3223
g3
F-0.1503604710229256
sba(ineural_net
Weight
p3224
(dp3225
g3
F-0.05249955099172129
sba(ineural_net
Weight
p3226
(dp3227
g3
F0.09842204110220734
sba(ineural_net
Weight
p3228
(dp3229
g3
F0.047501880938022656
sba(ineural_net
Weight
p3230
(dp3231
g3
F-0.1378743050077412
sba(ineural_net
Weight
p3232
(dp3233
g3
F-0.18415335686012407
sba(ineural_net
Weight
p3234
(dp3235
g3
F-0.10411295516870214
sba(ineural_net
Weight
p3236
(dp3237
g3
F-0.017767090086378882
sba(ineural_net
Weight
p3238
(dp3239
g3
F-0.006281590542164985
sba(ineural_net
Weight
p3240
(dp3241
g3
F0.004346732134950881
sba(ineural_net
Weight
p3242
(dp3243
g3
F-0.037122494976901066
sba(ineural_net
Weight
p3244
(dp3245
g3
F-0.07052428718320373
sba(ineural_net
Weight
p3246
(dp3247
g3
F-0.08004448729409724
sba(ineural_net
Weight
p3248
(dp3249
g3
F0.029942780297784237
sba(ineural_net
Weight
p3250
(dp3251
g3
F0.1692643688388378
sba(ineural_net
Weight
p3252
(dp3253
g3
F0.09437265954406972
sba(ineural_net
Weight
p3254
(dp3255
g3
F-0.13022539617558163
sba(ineural_net
Weight
p3256
(dp3257
g3
F-0.22203285345469298
sba(ineural_net
Weight
p3258
(dp3259
g3
F-0.07273266890902116
sba(ineural_net
Weight
p3260
(dp3261
g3
F0.15356117566729283
sba(ineural_net
Weight
p3262
(dp3263
g3
F0.1557414780614685
sba(ineural_net
Weight
p3264
(dp3265
g3
F0.01650497882366388
sba(ineural_net
Weight
p3266
(dp3267
g3
F-0.01840238916625025
sba(ineural_net
Weight
p3268
(dp3269
g3
F-0.0019798187682945408
sba(ineural_net
Weight
p3270
(dp3271
g3
F-0.03180970740922497
sba(ineural_net
Weight
p3272
(dp3273
g3
F-0.04720823549518622
sba(ineural_net
Weight
p3274
(dp3275
g3
F0.10153506928142589
sba(ineural_net
Weight
p3276
(dp3277
g3
F0.3236504405086492
sba(ineural_net
Weight
p3278
(dp3279
g3
F0.3821878806130178
sba(ineural_net
Weight
p3280
(dp3281
g3
F-0.337080293969285
sba(ineural_net
Weight
p3282
(dp3283
g3
F-1.2628111600034946
sba(ineural_net
Weight
p3284
(dp3285
g3
F-0.9334579015137534
sba(ineural_net
Weight
p3286
(dp3287
g3
F0.03155079172942344
sba(ineural_net
Weight
p3288
(dp3289
g3
F0.5176086415500835
sba(ineural_net
Weight
p3290
(dp3291
g3
F0.3929104062013401
sba(ineural_net
Weight
p3292
(dp3293
g3
F0.08899684566633335
sba(ineural_net
Weight
p3294
(dp3295
g3
F0.012501861780967028
sba(ineural_net
Weight
p3296
(dp3297
g3
F0.0011869951707397654
sba(ineural_net
Weight
p3298
(dp3299
g3
F-0.023779812616171524
sba(ineural_net
Weight
p3300
(dp3301
g3
F-0.05834567126865169
sba(ineural_net
Weight
p3302
(dp3303
g3
F-0.04434690478883535
sba(ineural_net
Weight
p3304
(dp3305
g3
F0.060862489703429765
sba(ineural_net
Weight
p3306
(dp3307
g3
F0.5486113536252311
sba(ineural_net
Weight
p3308
(dp3309
g3
F-0.0909021494377893
sba(ineural_net
Weight
p3310
(dp3311
g3
F-0.857945044195437
sba(ineural_net
Weight
p3312
(dp3313
g3
F-0.1027399672283718
sba(ineural_net
Weight
p3314
(dp3315
g3
F0.45536679652409273
sba(ineural_net
Weight
p3316
(dp3317
g3
F0.4162602175054055
sba(ineural_net
Weight
p3318
(dp3319
g3
F0.21472550782327235
sba(ineural_net
Weight
p3320
(dp3321
g3
F0.06130594087235731
sba(ineural_net
Weight
p3322
(dp3323
g3
F0.008259991235843523
sba(ineural_net
Weight
p3324
(dp3325
g3
F0.005575049613537765
sba(ineural_net
Weight
p3326
(dp3327
g3
F-0.019152584215045322
sba(ineural_net
Weight
p3328
(dp3329
g3
F-0.18033017557674777
sba(ineural_net
Weight
p3330
(dp3331
g3
F-0.5800553885988663
sba(ineural_net
Weight
p3332
(dp3333
g3
F-0.8143142269982867
sba(ineural_net
Weight
p3334
(dp3335
g3
F0.2751980989206936
sba(ineural_net
Weight
p3336
(dp3337
g3
F0.4393865542023476
sba(ineural_net
Weight
p3338
(dp3339
g3
F-0.06059108660828751
sba(ineural_net
Weight
p3340
(dp3341
g3
F0.03812308083392473
sba(ineural_net
Weight
p3342
(dp3343
g3
F-0.15770406894102262
sba(ineural_net
Weight
p3344
(dp3345
g3
F-0.11617421928887067
sba(ineural_net
Weight
p3346
(dp3347
g3
F-0.09102813512403478
sba(ineural_net
Weight
p3348
(dp3349
g3
F-0.026267723496836787
sba(ineural_net
Weight
p3350
(dp3351
g3
F0.0008658313508918178
sba(ineural_net
Weight
p3352
(dp3353
g3
F-0.007532086451273746
sba(ineural_net
Weight
p3354
(dp3355
g3
F-0.03903783248611979
sba(ineural_net
Weight
p3356
(dp3357
g3
F-0.27823641026641266
sba(ineural_net
Weight
p3358
(dp3359
g3
F-0.7993256335002354
sba(ineural_net
Weight
p3360
(dp3361
g3
F-0.9092441057892489
sba(ineural_net
Weight
p3362
(dp3363
g3
F0.18544988154743147
sba(ineural_net
Weight
p3364
(dp3365
g3
F0.43352642401663105
sba(ineural_net
Weight
p3366
(dp3367
g3
F-0.12803479087078226
sba(ineural_net
Weight
p3368
(dp3369
g3
F-0.5228035472495645
sba(ineural_net
Weight
p3370
(dp3371
g3
F-0.8019553593329903
sba(ineural_net
Weight
p3372
(dp3373
g3
F-0.47647781595663874
sba(ineural_net
Weight
p3374
(dp3375
g3
F-0.2085977153066324
sba(ineural_net
Weight
p3376
(dp3377
g3
F-0.06628996333735165
sba(ineural_net
Weight
p3378
(dp3379
g3
F-4.14205094437561e-05
sba(ineural_net
Weight
p3380
(dp3381
g3
F0.004680612850319224
sba(ineural_net
Weight
p3382
(dp3383
g3
F-0.05951755049168781
sba(ineural_net
Weight
p3384
(dp3385
g3
F-0.3043521862224839
sba(ineural_net
Weight
p3386
(dp3387
g3
F-0.3333688729650779
sba(ineural_net
Weight
p3388
(dp3389
g3
F0.28961468981426264
sba(ineural_net
Weight
p3390
(dp3391
g3
F0.6945465333536815
sba(ineural_net
Weight
p3392
(dp3393
g3
F-0.01741034270148696
sba(ineural_net
Weight
p3394
(dp3395
g3
F-0.34815775085673156
sba(ineural_net
Weight
p3396
(dp3397
g3
F-0.3806623094194406
sba(ineural_net
Weight
p3398
(dp3399
g3
F-0.6949742705861045
sba(ineural_net
Weight
p3400
(dp3401
g3
F-0.44939614048599863
sba(ineural_net
Weight
p3402
(dp3403
g3
F-0.20197819059546945
sba(ineural_net
Weight
p3404
(dp3405
g3
F-0.055699834307679955
sba(ineural_net
Weight
p3406
(dp3407
g3
F0.0024593197183986155
sba(ineural_net
Weight
p3408
(dp3409
g3
F0.0063548581762544855
sba(ineural_net
Weight
p3410
(dp3411
g3
F-0.09751901898776495
sba(ineural_net
Weight
p3412
(dp3413
g3
F-0.2859099820908807
sba(ineural_net
Weight
p3414
(dp3415
g3
F0.0702339194370566
sba(ineural_net
Weight
p3416
(dp3417
g3
F0.677382278109132
sba(ineural_net
Weight
p3418
(dp3419
g3
F0.14138808434871036
sba(ineural_net
Weight
p3420
(dp3421
g3
F-0.8622265848078778
sba(ineural_net
Weight
p3422
(dp3423
g3
F-0.6353637706114279
sba(ineural_net
Weight
p3424
(dp3425
g3
F-0.2720691663168289
sba(ineural_net
Weight
p3426
(dp3427
g3
F-0.467434905858722
sba(ineural_net
Weight
p3428
(dp3429
g3
F-0.3103024753605863
sba(ineural_net
Weight
p3430
(dp3431
g3
F-0.13189306249828753
sba(ineural_net
Weight
p3432
(dp3433
g3
F-0.03144750232376518
sba(ineural_net
Weight
p3434
(dp3435
g3
F-0.00404903671298494
sba(ineural_net
Weight
p3436
(dp3437
g3
F-0.003749740363401993
sba(ineural_net
Weight
p3438
(dp3439
g3
F-0.08812235361925728
sba(ineural_net
Weight
p3440
(dp3441
g3
F-0.1645092467224806
sba(ineural_net
Weight
p3442
(dp3443
g3
F0.027533045173147516
sba(ineural_net
Weight
p3444
(dp3445
g3
F0.12007391795337273
sba(ineural_net
Weight
p3446
(dp3447
g3
F-0.172237230095366
sba(ineural_net
Weight
p3448
(dp3449
g3
F-0.4876655988454128
sba(ineural_net
Weight
p3450
(dp3451
g3
F-0.3587044859381894
sba(ineural_net
Weight
p3452
(dp3453
g3
F-0.14603015094943012
sba(ineural_net
Weight
p3454
(dp3455
g3
F-0.18414835209391864
sba(ineural_net
Weight
p3456
(dp3457
g3
F-0.16632688982328306
sba(ineural_net
Weight
p3458
(dp3459
g3
F-0.06449876743956529
sba(ineural_net
Weight
p3460
(dp3461
g3
F-0.010185621597918686
sba(ineural_net
Weight
p3462
(dp3463
g3
F0.001539889360931049
sba(ineural_net
Weight
p3464
(dp3465
g3
F0.007562659587372967
sba(ineural_net
Weight
p3466
(dp3467
g3
F-0.04887872477146114
sba(ineural_net
Weight
p3468
(dp3469
g3
F-0.10976895738294752
sba(ineural_net
Weight
p3470
(dp3471
g3
F-0.0760759092499459
sba(ineural_net
Weight
p3472
(dp3473
g3
F0.05800879985988639
sba(ineural_net
Weight
p3474
(dp3475
g3
F0.371248043131489
sba(ineural_net
Weight
p3476
(dp3477
g3
F0.5042188069096842
sba(ineural_net
Weight
p3478
(dp3479
g3
F0.301055635600468
sba(ineural_net
Weight
p3480
(dp3481
g3
F0.13324951546792077
sba(ineural_net
Weight
p3482
(dp3483
g3
F0.00688718818309796
sba(ineural_net
Weight
p3484
(dp3485
g3
F-0.0624417331397903
sba(ineural_net
Weight
p3486
(dp3487
g3
F-0.02445735263260395
sba(ineural_net
Weight
p3488
(dp3489
g3
F0.001845126911942806
sba(ineural_net
Weight
p3490
(dp3491
g3
F0.003609466732046253
sba(ineural_net
Weight
p3492
(dp3493
g3
F-0.009023964826183051
sba(ineural_net
Weight
p3494
(dp3495
g3
F-0.016474566899831507
sba(ineural_net
Weight
p3496
(dp3497
g3
F-0.06548884577213648
sba(ineural_net
Weight
p3498
(dp3499
g3
F-0.10249864356545901
sba(ineural_net
Weight
p3500
(dp3501
g3
F-0.000899626181975217
sba(ineural_net
Weight
p3502
(dp3503
g3
F0.13167979239803107
sba(ineural_net
Weight
p3504
(dp3505
g3
F0.21669876548785785
sba(ineural_net
Weight
p3506
(dp3507
g3
F0.16073928366592385
sba(ineural_net
Weight
p3508
(dp3509
g3
F0.04760910009590634
sba(ineural_net
Weight
p3510
(dp3511
g3
F0.0038276634562943693
sba(ineural_net
Weight
p3512
(dp3513
g3
F-0.009636737044057743
sba(ineural_net
Weight
p3514
(dp3515
g3
F0.002663703999438138
sba(ineural_net
Weight
p3516
(dp3517
g3
F-0.009318037651363383
sba(ineural_net
Weight
p3518
(dp3519
g3
F0.005188459062994439
sba(ineural_net
Weight
p3520
(dp3521
g3
F-0.00736004554972372
sba(ineural_net
Weight
p3522
(dp3523
g3
F0.006993167954671265
sba(ineural_net
Weight
p3524
(dp3525
g3
F-0.008628830189176194
sba(ineural_net
Weight
p3526
(dp3527
g3
F-0.051788085929937874
sba(ineural_net
Weight
p3528
(dp3529
g3
F-0.09029436021751583
sba(ineural_net
Weight
p3530
(dp3531
g3
F-0.09193300037929301
sba(ineural_net
Weight
p3532
(dp3533
g3
F-0.09866307676288077
sba(ineural_net
Weight
p3534
(dp3535
g3
F-0.06859264048587727
sba(ineural_net
Weight
p3536
(dp3537
g3
F-0.04774975626058694
sba(ineural_net
Weight
p3538
(dp3539
g3
F-0.03426848153916901
sba(ineural_net
Weight
p3540
(dp3541
g3
F-0.007332128925770199
sba(ineural_net
Weight
p3542
(dp3543
g3
F-0.007307647721888593
sba(ineural_net
Weight
p3544
(dp3545
g3
F0.0002286040473635318
sba(ineural_net
Weight
p3546
(dp3547
g3
F0.004595733787891718
sba(ineural_net
Weight
p3548
(dp3549
g3
F0.00942839349311725
sba(ineural_net
Weight
p3550
(dp3551
g3
F0.002238984395350887
sba(ineural_net
Weight
p3552
(dp3553
g3
F0.009831746268479965
sba(ineural_net
Weight
p3554
(dp3555
g3
F-0.002374965105390077
sba(ineural_net
Weight
p3556
(dp3557
g3
F-0.0004978700375820654
sba(ineural_net
Weight
p3558
(dp3559
g3
F0.0014292077358190828
sba(ineural_net
Weight
p3560
(dp3561
g3
F-0.009406517303747565
sba(ineural_net
Weight
p3562
(dp3563
g3
F-0.022204061527436505
sba(ineural_net
Weight
p3564
(dp3565
g3
F-0.02277973933156292
sba(ineural_net
Weight
p3566
(dp3567
g3
F-0.020043931781939958
sba(ineural_net
Weight
p3568
(dp3569
g3
F-0.0159623326833965
sba(ineural_net
Weight
p3570
(dp3571
g3
F0.001113200433722321
sba(ineural_net
Weight
p3572
(dp3573
g3
F-0.0012935382116131386
sba(ineural_net
Weight
p3574
(dp3575
g3
F0.004966719997610335
sba(ineural_net
Weight
p3576
(dp3577
g3
F-0.0008244392241786459
sba(ineural_net
Weight
p3578
(dp3579
g3
F0.0015476937664338439
sba(ineural_net
Weight
p3580
(dp3581
g3
F-0.007048263918865181
sba(ineural_net
Weight
p3582
(dp3583
g3
F-0.007713791042616014
sba(ineural_net
Weight
p3584
(dp3585
g3
F-0.020899974657791677
sba(ineural_net
Weight
p3586
(dp3587
g3
F-0.05358475166683574
sba(ineural_net
Weight
p3588
(dp3589
g3
F-0.12693294536236419
sba(ineural_net
Weight
p3590
(dp3591
g3
F-0.25890096146348307
sba(ineural_net
Weight
p3592
(dp3593
g3
F-0.34897902020994565
sba(ineural_net
Weight
p3594
(dp3595
g3
F-0.3103658357179761
sba(ineural_net
Weight
p3596
(dp3597
g3
F-0.20676350001226185
sba(ineural_net
Weight
p3598
(dp3599
g3
F-0.1074056828247699
sba(ineural_net
Weight
p3600
(dp3601
g3
F-0.034920759221765636
sba(ineural_net
Weight
p3602
(dp3603
g3
F-0.002689268180698422
sba(ineural_net
Weight
p3604
(dp3605
g3
F0.007905728445597993
sba(ineural_net
Weight
p3606
(dp3607
g3
F0.004383149368033768
sba(ineural_net
Weight
p3608
(dp3609
g3
F-0.001252354514447407
sba(ineural_net
Weight
p3610
(dp3611
g3
F-0.06116596223894624
sba(ineural_net
Weight
p3612
(dp3613
g3
F-0.1908298900554145
sba(ineural_net
Weight
p3614
(dp3615
g3
F-0.425223857113241
sba(ineural_net
Weight
p3616
(dp3617
g3
F-0.5040977161781777
sba(ineural_net
Weight
p3618
(dp3619
g3
F-0.21550046656829253
sba(ineural_net
Weight
p3620
(dp3621
g3
F0.004814886543969796
sba(ineural_net
Weight
p3622
(dp3623
g3
F-0.14693752102377622
sba(ineural_net
Weight
p3624
(dp3625
g3
F-0.4534289174824145
sba(ineural_net
Weight
p3626
(dp3627
g3
F-0.448943781045467
sba(ineural_net
Weight
p3628
(dp3629
g3
F-0.2518038861312366
sba(ineural_net
Weight
p3630
(dp3631
g3
F-0.07694323145542052
sba(ineural_net
Weight
p3632
(dp3633
g3
F-0.008195911909711346
sba(ineural_net
Weight
p3634
(dp3635
g3
F-0.013831686407087696
sba(ineural_net
Weight
p3636
(dp3637
g3
F-0.07061501578634814
sba(ineural_net
Weight
p3638
(dp3639
g3
F-0.28856260435017456
sba(ineural_net
Weight
p3640
(dp3641
g3
F-0.6247390456764518
sba(ineural_net
Weight
p3642
(dp3643
g3
F-0.719750960796473
sba(ineural_net
Weight
p3644
(dp3645
g3
F-0.12026932640958862
sba(ineural_net
Weight
p3646
(dp3647
g3
F0.7109341112159028
sba(ineural_net
Weight
p3648
(dp3649
g3
F0.9719305000206657
sba(ineural_net
Weight
p3650
(dp3651
g3
F0.40778647759648523
sba(ineural_net
Weight
p3652
(dp3653
g3
F-0.3308159867665286
sba(ineural_net
Weight
p3654
(dp3655
g3
F-0.5521912244174926
sba(ineural_net
Weight
p3656
(dp3657
g3
F-0.3786301142687108
sba(ineural_net
Weight
p3658
(dp3659
g3
F-0.11700916435196244
sba(ineural_net
Weight
p3660
(dp3661
g3
F-0.008246440278411229
sba(ineural_net
Weight
p3662
(dp3663
g3
F-0.034013076313140725
sba(ineural_net
Weight
p3664
(dp3665
g3
F-0.1556896517796089
sba(ineural_net
Weight
p3666
(dp3667
g3
F-0.3840861212151078
sba(ineural_net
Weight
p3668
(dp3669
g3
F-0.5585577248460216
sba(ineural_net
Weight
p3670
(dp3671
g3
F-0.19494719611782257
sba(ineural_net
Weight
p3672
(dp3673
g3
F0.34595892986222815
sba(ineural_net
Weight
p3674
(dp3675
g3
F0.24337402136417513
sba(ineural_net
Weight
p3676
(dp3677
g3
F-0.012787777947491365
sba(ineural_net
Weight
p3678
(dp3679
g3
F-0.05536070691218368
sba(ineural_net
Weight
p3680
(dp3681
g3
F-0.02884557049158528
sba(ineural_net
Weight
p3682
(dp3683
g3
F-0.11373461267055923
sba(ineural_net
Weight
p3684
(dp3685
g3
F-0.22585531019152116
sba(ineural_net
Weight
p3686
(dp3687
g3
F-0.07899195526128587
sba(ineural_net
Weight
p3688
(dp3689
g3
F-0.007091132471293247
sba(ineural_net
Weight
p3690
(dp3691
g3
F-0.02933590838757968
sba(ineural_net
Weight
p3692
(dp3693
g3
F-0.11116325281882242
sba(ineural_net
Weight
p3694
(dp3695
g3
F-0.11481395378439084
sba(ineural_net
Weight
p3696
(dp3697
g3
F0.14465472029038678
sba(ineural_net
Weight
p3698
(dp3699
g3
F0.37610967055454086
sba(ineural_net
Weight
p3700
(dp3701
g3
F-0.1069548446371205
sba(ineural_net
Weight
p3702
(dp3703
g3
F-0.8955185283741813
sba(ineural_net
Weight
p3704
(dp3705
g3
F-0.651897972172001
sba(ineural_net
Weight
p3706
(dp3707
g3
F0.10956176629962987
sba(ineural_net
Weight
p3708
(dp3709
g3
F0.4806938515309817
sba(ineural_net
Weight
p3710
(dp3711
g3
F0.2494887800921046
sba(ineural_net
Weight
p3712
(dp3713
g3
F-0.08769997673655365
sba(ineural_net
Weight
p3714
(dp3715
g3
F-0.03788126360358781
sba(ineural_net
Weight
p3716
(dp3717
g3
F-0.007279586508293123
sba(ineural_net
Weight
p3718
(dp3719
g3
F-0.024653367730718155
sba(ineural_net
Weight
p3720
(dp3721
g3
F-0.023690133196518772
sba(ineural_net
Weight
p3722
(dp3723
g3
F0.07569464263004323
sba(ineural_net
Weight
p3724
(dp3725
g3
F0.43915516155511586
sba(ineural_net
Weight
p3726
(dp3727
g3
F0.505027926609343
sba(ineural_net
Weight
p3728
(dp3729
g3
F0.12423685236543446
sba(ineural_net
Weight
p3730
(dp3731
g3
F-0.13906045484428067
sba(ineural_net
Weight
p3732
(dp3733
g3
F0.2663485013641272
sba(ineural_net
Weight
p3734
(dp3735
g3
F0.7172466621873722
sba(ineural_net
Weight
p3736
(dp3737
g3
F0.3836697669117372
sba(ineural_net
Weight
p3738
(dp3739
g3
F-0.05678555254503494
sba(ineural_net
Weight
p3740
(dp3741
g3
F-0.14074597950652293
sba(ineural_net
Weight
p3742
(dp3743
g3
F-0.030664992909911492
sba(ineural_net
Weight
p3744
(dp3745
g3
F-0.0077350226182856365
sba(ineural_net
Weight
p3746
(dp3747
g3
F-0.004568339293610236
sba(ineural_net
Weight
p3748
(dp3749
g3
F0.010459989557176077
sba(ineural_net
Weight
p3750
(dp3751
g3
F-0.06603500130408896
sba(ineural_net
Weight
p3752
(dp3753
g3
F0.07952306711822484
sba(ineural_net
Weight
p3754
(dp3755
g3
F0.41359209607209846
sba(ineural_net
Weight
p3756
(dp3757
g3
F0.49627300050068346
sba(ineural_net
Weight
p3758
(dp3759
g3
F0.007820290260658632
sba(ineural_net
Weight
p3760
(dp3761
g3
F0.07081217486064169
sba(ineural_net
Weight
p3762
(dp3763
g3
F0.21305669867122537
sba(ineural_net
Weight
p3764
(dp3765
g3
F-0.392307709160472
sba(ineural_net
Weight
p3766
(dp3767
g3
F-0.48703582676152024
sba(ineural_net
Weight
p3768
(dp3769
g3
F-0.22269266151807432
sba(ineural_net
Weight
p3770
(dp3771
g3
F-0.058725573520459005
sba(ineural_net
Weight
p3772
(dp3773
g3
F0.003566904179621269
sba(ineural_net
Weight
p3774
(dp3775
g3
F-0.005177698928876161
sba(ineural_net
Weight
p3776
(dp3777
g3
F-0.012042082741182084
sba(ineural_net
Weight
p3778
(dp3779
g3
F-0.19251164092124645
sba(ineural_net
Weight
p3780
(dp3781
g3
F-0.2540418110152809
sba(ineural_net
Weight
p3782
(dp3783
g3
F0.00545682823251782
sba(ineural_net
Weight
p3784
(dp3785
g3
F0.012504897479870318
sba(ineural_net
Weight
p3786
(dp3787
g3
F-0.5294731287075056
sba(ineural_net
Weight
p3788
(dp3789
g3
F-0.3489347438641892
sba(ineural_net
Weight
p3790
(dp3791
g3
F-0.25265687747049503
sba(ineural_net
Weight
p3792
(dp3793
g3
F-0.6479167994235492
sba(ineural_net
Weight
p3794
(dp3795
g3
F-0.4447118098573869
sba(ineural_net
Weight
p3796
(dp3797
g3
F-0.19831438139097135
sba(ineural_net
Weight
p3798
(dp3799
g3
F-0.05252106049318879
sba(ineural_net
Weight
p3800
(dp3801
g3
F-0.004101757229165731
sba(ineural_net
Weight
p3802
(dp3803
g3
F0.00033282604138493925
sba(ineural_net
Weight
p3804
(dp3805
g3
F-0.050798230171865966
sba(ineural_net
Weight
p3806
(dp3807
g3
F-0.2086207603344819
sba(ineural_net
Weight
p3808
(dp3809
g3
F-0.4043011735698042
sba(ineural_net
Weight
p3810
(dp3811
g3
F-0.534522936129742
sba(ineural_net
Weight
p3812
(dp3813
g3
F-0.664622639671803
sba(ineural_net
Weight
p3814
(dp3815
g3
F-0.5662113464286179
sba(ineural_net
Weight
p3816
(dp3817
g3
F-0.3948629130938868
sba(ineural_net
Weight
p3818
(dp3819
g3
F-0.5248751050032334
sba(ineural_net
Weight
p3820
(dp3821
g3
F-0.5685321195724583
sba(ineural_net
Weight
p3822
(dp3823
g3
F-0.31733476894496515
sba(ineural_net
Weight
p3824
(dp3825
g3
F-0.11759582097151666
sba(ineural_net
Weight
p3826
(dp3827
g3
F-0.03035958266165615
sba(ineural_net
Weight
p3828
(dp3829
g3
F-0.0019321387777187936
sba(ineural_net
Weight
p3830
(dp3831
g3
F-0.004876378646505662
sba(ineural_net
Weight
p3832
(dp3833
g3
F-0.026393932295700154
sba(ineural_net
Weight
p3834
(dp3835
g3
F-0.17661596446072658
sba(ineural_net
Weight
p3836
(dp3837
g3
F-0.4744678585275152
sba(ineural_net
Weight
p3838
(dp3839
g3
F-0.7973993427992169
sba(ineural_net
Weight
p3840
(dp3841
g3
F-0.8072909570013114
sba(ineural_net
Weight
p3842
(dp3843
g3
F-0.6519167601190397
sba(ineural_net
Weight
p3844
(dp3845
g3
F-0.7056111820725
sba(ineural_net
Weight
p3846
(dp3847
g3
F-0.6241962058051859
sba(ineural_net
Weight
p3848
(dp3849
g3
F-0.3950284147874415
sba(ineural_net
Weight
p3850
(dp3851
g3
F-0.1877965428504634
sba(ineural_net
Weight
p3852
(dp3853
g3
F-0.040656334172292134
sba(ineural_net
Weight
p3854
(dp3855
g3
F-0.00843535242533249
sba(ineural_net
Weight
p3856
(dp3857
g3
F0.008596118593865814
sba(ineural_net
Weight
p3858
(dp3859
g3
F0.0010130035212538276
sba(ineural_net
Weight
p3860
(dp3861
g3
F-0.006920107080747882
sba(ineural_net
Weight
p3862
(dp3863
g3
F-0.08226529245083597
sba(ineural_net
Weight
p3864
(dp3865
g3
F-0.25197121720245796
sba(ineural_net
Weight
p3866
(dp3867
g3
F-0.3410309163056624
sba(ineural_net
Weight
p3868
(dp3869
g3
F-0.18432257591274992
sba(ineural_net
Weight
p3870
(dp3871
g3
F-0.30313118773807457
sba(ineural_net
Weight
p3872
(dp3873
g3
F-0.45705336367556626
sba(ineural_net
Weight
p3874
(dp3875
g3
F-0.11615352254682439
sba(ineural_net
Weight
p3876
(dp3877
g3
F0.029197938534101724
sba(ineural_net
Weight
p3878
(dp3879
g3
F0.0008000771352067954
sba(ineural_net
Weight
p3880
(dp3881
g3
F0.026181241427548133
sba(ineural_net
Weight
p3882
(dp3883
g3
F0.011414087447670272
sba(ineural_net
Weight
p3884
(dp3885
g3
F0.0057089788421318954
sba(ineural_net
Weight
p3886
(dp3887
g3
F-0.005277417765893624
sba(ineural_net
Weight
p3888
(dp3889
g3
F-0.0015783063242917313
sba(ineural_net
Weight
p3890
(dp3891
g3
F-0.000454036459600443
sba(ineural_net
Weight
p3892
(dp3893
g3
F-0.027424291745150244
sba(ineural_net
Weight
p3894
(dp3895
g3
F0.03867631590123686
sba(ineural_net
Weight
p3896
(dp3897
g3
F0.11306600254166525
sba(ineural_net
Weight
p3898
(dp3899
g3
F0.014548896996167293
sba(ineural_net
Weight
p3900
(dp3901
g3
F-0.002954133474149443
sba(ineural_net
Weight
p3902
(dp3903
g3
F0.22903793632971578
sba(ineural_net
Weight
p3904
(dp3905
g3
F0.26524290532816774
sba(ineural_net
Weight
p3906
(dp3907
g3
F0.09006466013730068
sba(ineural_net
Weight
p3908
(dp3909
g3
F0.004779246232069229
sba(ineural_net
Weight
p3910
(dp3911
g3
F0.00226241101592017
sba(ineural_net
Weight
p3912
(dp3913
g3
F0.006355949519789331
sba(ineural_net
Weight
p3914
(dp3915
g3
F0.0048340695180055845
sba(ineural_net
Weight
p3916
(dp3917
g3
F0.007968548083368165
sba(ineural_net
Weight
p3918
(dp3919
g3
F-0.0001703726311200757
sba(ineural_net
Weight
p3920
(dp3921
g3
F0.017454437752462543
sba(ineural_net
Weight
p3922
(dp3923
g3
F0.012524890000629016
sba(ineural_net
Weight
p3924
(dp3925
g3
F-0.002178075218058673
sba(ineural_net
Weight
p3926
(dp3927
g3
F-0.010693749506373983
sba(ineural_net
Weight
p3928
(dp3929
g3
F0.011871722244593371
sba(ineural_net
Weight
p3930
(dp3931
g3
F0.047828746752242184
sba(ineural_net
Weight
p3932
(dp3933
g3
F0.07064258773735166
sba(ineural_net
Weight
p3934
(dp3935
g3
F0.03544983982778542
sba(ineural_net
Weight
p3936
(dp3937
g3
F0.0019918934610230316
sba(ineural_net
Weight
p3938
(dp3939
g3
F-0.00945955847968566
sba(ineural_net
Weight
p3940
(dp3941
g3
F0.003678673243341363
sba.